
30.elf:     file format elf32-avr

Sections:
Idx Name          Size      VMA       LMA       File off  Algn
  0 .data         0000006a  00800100  00000f14  00000fa8  2**0
                  CONTENTS, ALLOC, LOAD, DATA
  1 .text         00000f14  00000000  00000000  00000094  2**1
                  CONTENTS, ALLOC, LOAD, READONLY, CODE
  2 .bss          0000000f  0080016a  0080016a  00001012  2**0
                  ALLOC
  3 .comment      0000005c  00000000  00000000  00001012  2**0
                  CONTENTS, READONLY
  4 .note.gnu.avr.deviceinfo 0000003c  00000000  00000000  00001070  2**2
                  CONTENTS, READONLY
  5 .debug_aranges 000000b0  00000000  00000000  000010ac  2**0
                  CONTENTS, READONLY, DEBUGGING
  6 .debug_info   000012fe  00000000  00000000  0000115c  2**0
                  CONTENTS, READONLY, DEBUGGING
  7 .debug_abbrev 000009f2  00000000  00000000  0000245a  2**0
                  CONTENTS, READONLY, DEBUGGING
  8 .debug_line   00000807  00000000  00000000  00002e4c  2**0
                  CONTENTS, READONLY, DEBUGGING
  9 .debug_frame  0000019c  00000000  00000000  00003654  2**2
                  CONTENTS, READONLY, DEBUGGING
 10 .debug_str    0000056b  00000000  00000000  000037f0  2**0
                  CONTENTS, READONLY, DEBUGGING
 11 .debug_loc    00000810  00000000  00000000  00003d5b  2**0
                  CONTENTS, READONLY, DEBUGGING
 12 .debug_ranges 000000a0  00000000  00000000  0000456b  2**0
                  CONTENTS, READONLY, DEBUGGING

Disassembly of section .text:

00000000 <__vectors>:
   0:	45 c0       	rjmp	.+138    	; 0x8c <__ctors_end>
   2:	00 00       	nop
   4:	60 c0       	rjmp	.+192    	; 0xc6 <__bad_interrupt>
   6:	00 00       	nop
   8:	5e c0       	rjmp	.+188    	; 0xc6 <__bad_interrupt>
   a:	00 00       	nop
   c:	5c c0       	rjmp	.+184    	; 0xc6 <__bad_interrupt>
   e:	00 00       	nop
  10:	5a c0       	rjmp	.+180    	; 0xc6 <__bad_interrupt>
  12:	00 00       	nop
  14:	58 c0       	rjmp	.+176    	; 0xc6 <__bad_interrupt>
  16:	00 00       	nop
  18:	56 c0       	rjmp	.+172    	; 0xc6 <__bad_interrupt>
  1a:	00 00       	nop
  1c:	54 c0       	rjmp	.+168    	; 0xc6 <__bad_interrupt>
  1e:	00 00       	nop
  20:	52 c0       	rjmp	.+164    	; 0xc6 <__bad_interrupt>
  22:	00 00       	nop
  24:	50 c0       	rjmp	.+160    	; 0xc6 <__bad_interrupt>
  26:	00 00       	nop
  28:	4e c0       	rjmp	.+156    	; 0xc6 <__bad_interrupt>
  2a:	00 00       	nop
  2c:	4c c0       	rjmp	.+152    	; 0xc6 <__bad_interrupt>
  2e:	00 00       	nop
  30:	4a c0       	rjmp	.+148    	; 0xc6 <__bad_interrupt>
  32:	00 00       	nop
  34:	48 c0       	rjmp	.+144    	; 0xc6 <__bad_interrupt>
  36:	00 00       	nop
  38:	46 c0       	rjmp	.+140    	; 0xc6 <__bad_interrupt>
  3a:	00 00       	nop
  3c:	44 c0       	rjmp	.+136    	; 0xc6 <__bad_interrupt>
  3e:	00 00       	nop
  40:	42 c0       	rjmp	.+132    	; 0xc6 <__bad_interrupt>
  42:	00 00       	nop
  44:	40 c0       	rjmp	.+128    	; 0xc6 <__bad_interrupt>
  46:	00 00       	nop
  48:	c9 c2       	rjmp	.+1426   	; 0x5dc <__vector_18>
  4a:	00 00       	nop
  4c:	3c c0       	rjmp	.+120    	; 0xc6 <__bad_interrupt>
  4e:	00 00       	nop
  50:	3a c0       	rjmp	.+116    	; 0xc6 <__bad_interrupt>
  52:	00 00       	nop
  54:	38 c0       	rjmp	.+112    	; 0xc6 <__bad_interrupt>
  56:	00 00       	nop
  58:	36 c0       	rjmp	.+108    	; 0xc6 <__bad_interrupt>
  5a:	00 00       	nop
  5c:	34 c0       	rjmp	.+104    	; 0xc6 <__bad_interrupt>
  5e:	00 00       	nop
  60:	32 c0       	rjmp	.+100    	; 0xc6 <__bad_interrupt>
  62:	00 00       	nop
  64:	30 c0       	rjmp	.+96     	; 0xc6 <__bad_interrupt>
  66:	00 00       	nop
  68:	2e c0       	rjmp	.+92     	; 0xc6 <__bad_interrupt>
  6a:	00 00       	nop
  6c:	2c c0       	rjmp	.+88     	; 0xc6 <__bad_interrupt>
  6e:	00 00       	nop
  70:	2a c0       	rjmp	.+84     	; 0xc6 <__bad_interrupt>
  72:	00 00       	nop
  74:	28 c0       	rjmp	.+80     	; 0xc6 <__bad_interrupt>
  76:	00 00       	nop
  78:	26 c0       	rjmp	.+76     	; 0xc6 <__bad_interrupt>
  7a:	00 00       	nop
  7c:	24 c0       	rjmp	.+72     	; 0xc6 <__bad_interrupt>
  7e:	00 00       	nop
  80:	22 c0       	rjmp	.+68     	; 0xc6 <__bad_interrupt>
  82:	00 00       	nop
  84:	20 c0       	rjmp	.+64     	; 0xc6 <__bad_interrupt>
  86:	00 00       	nop
  88:	1e c0       	rjmp	.+60     	; 0xc6 <__bad_interrupt>
	...

0000008c <__ctors_end>:
  8c:	11 24       	eor	r1, r1
  8e:	1f be       	out	0x3f, r1	; 63
  90:	cf ef       	ldi	r28, 0xFF	; 255
  92:	d0 e1       	ldi	r29, 0x10	; 16
  94:	de bf       	out	0x3e, r29	; 62
  96:	cd bf       	out	0x3d, r28	; 61

00000098 <__do_copy_data>:
  98:	11 e0       	ldi	r17, 0x01	; 1
  9a:	a0 e0       	ldi	r26, 0x00	; 0
  9c:	b1 e0       	ldi	r27, 0x01	; 1
  9e:	e4 e1       	ldi	r30, 0x14	; 20
  a0:	ff e0       	ldi	r31, 0x0F	; 15
  a2:	00 e0       	ldi	r16, 0x00	; 0
  a4:	0b bf       	out	0x3b, r16	; 59
  a6:	02 c0       	rjmp	.+4      	; 0xac <__do_copy_data+0x14>
  a8:	07 90       	elpm	r0, Z+
  aa:	0d 92       	st	X+, r0
  ac:	aa 36       	cpi	r26, 0x6A	; 106
  ae:	b1 07       	cpc	r27, r17
  b0:	d9 f7       	brne	.-10     	; 0xa8 <__do_copy_data+0x10>

000000b2 <__do_clear_bss>:
  b2:	21 e0       	ldi	r18, 0x01	; 1
  b4:	aa e6       	ldi	r26, 0x6A	; 106
  b6:	b1 e0       	ldi	r27, 0x01	; 1
  b8:	01 c0       	rjmp	.+2      	; 0xbc <.do_clear_bss_start>

000000ba <.do_clear_bss_loop>:
  ba:	1d 92       	st	X+, r1

000000bc <.do_clear_bss_start>:
  bc:	a9 37       	cpi	r26, 0x79	; 121
  be:	b2 07       	cpc	r27, r18
  c0:	e1 f7       	brne	.-8      	; 0xba <.do_clear_bss_loop>
  c2:	68 d1       	rcall	.+720    	; 0x394 <main>
  c4:	25 c7       	rjmp	.+3658   	; 0xf10 <_exit>

000000c6 <__bad_interrupt>:
  c6:	9c cf       	rjmp	.-200    	; 0x0 <__vectors>

000000c8 <ADC_set>:
		LCD_data(*str++);
}

void LCD_setcursor(char col, char row)
{
	LCD_command(0x80 | col * 0x40 + row);
  c8:	80 e8       	ldi	r24, 0x80	; 128
  ca:	86 b9       	out	0x06, r24	; 6
  cc:	86 b1       	in	r24, 0x06	; 6
  ce:	87 60       	ori	r24, 0x07	; 7
  d0:	86 b9       	out	0x06, r24	; 6
  d2:	08 95       	ret

000000d4 <ADC_read>:
  d4:	90 e4       	ldi	r25, 0x40	; 64
  d6:	97 b9       	out	0x07, r25	; 7
  d8:	97 b1       	in	r25, 0x07	; 7
  da:	89 2b       	or	r24, r25
  dc:	87 b9       	out	0x07, r24	; 7
  de:	36 9a       	sbi	0x06, 6	; 6
  e0:	36 99       	sbic	0x06, 6	; 6
  e2:	fe cf       	rjmp	.-4      	; 0xe0 <ADC_read+0xc>
  e4:	84 b1       	in	r24, 0x04	; 4
  e6:	95 b1       	in	r25, 0x05	; 5
  e8:	08 95       	ret

000000ea <temp_sensor_read>:
  ea:	ee df       	rcall	.-36     	; 0xc8 <ADC_set>
  ec:	80 e0       	ldi	r24, 0x00	; 0
  ee:	f2 df       	rcall	.-28     	; 0xd4 <ADC_read>
  f0:	bc 01       	movw	r22, r24
  f2:	99 0f       	add	r25, r25
  f4:	88 0b       	sbc	r24, r24
  f6:	99 0b       	sbc	r25, r25
  f8:	10 d3       	rcall	.+1568   	; 0x71a <__floatsisf>
  fa:	20 e0       	ldi	r18, 0x00	; 0
  fc:	30 e0       	ldi	r19, 0x00	; 0
  fe:	40 ea       	ldi	r20, 0xA0	; 160
 100:	50 e4       	ldi	r21, 0x40	; 64
 102:	9b d3       	rcall	.+1846   	; 0x83a <__mulsf3>
 104:	20 e0       	ldi	r18, 0x00	; 0
 106:	30 ec       	ldi	r19, 0xC0	; 192
 108:	4f e7       	ldi	r20, 0x7F	; 127
 10a:	54 e4       	ldi	r21, 0x44	; 68
 10c:	9c d2       	rcall	.+1336   	; 0x646 <__divsf3>
 10e:	20 e0       	ldi	r18, 0x00	; 0
 110:	30 e0       	ldi	r19, 0x00	; 0
 112:	48 ec       	ldi	r20, 0xC8	; 200
 114:	52 e4       	ldi	r21, 0x42	; 66
 116:	91 c3       	rjmp	.+1826   	; 0x83a <__mulsf3>

00000118 <gas_sensor_read>:
 118:	d7 df       	rcall	.-82     	; 0xc8 <ADC_set>
 11a:	82 e0       	ldi	r24, 0x02	; 2
 11c:	db df       	rcall	.-74     	; 0xd4 <ADC_read>
 11e:	bc 01       	movw	r22, r24
 120:	99 0f       	add	r25, r25
 122:	88 0b       	sbc	r24, r24
 124:	99 0b       	sbc	r25, r25
 126:	f9 d2       	rcall	.+1522   	; 0x71a <__floatsisf>
 128:	20 e0       	ldi	r18, 0x00	; 0
 12a:	30 e0       	ldi	r19, 0x00	; 0
 12c:	40 ea       	ldi	r20, 0xA0	; 160
 12e:	50 e4       	ldi	r21, 0x40	; 64
 130:	84 d3       	rcall	.+1800   	; 0x83a <__mulsf3>
 132:	20 e0       	ldi	r18, 0x00	; 0
 134:	30 ec       	ldi	r19, 0xC0	; 192
 136:	4f e7       	ldi	r20, 0x7F	; 127
 138:	54 e4       	ldi	r21, 0x44	; 68
 13a:	85 c2       	rjmp	.+1290   	; 0x646 <__divsf3>

0000013c <fire_sensor_read>:
 13c:	81 e0       	ldi	r24, 0x01	; 1
 13e:	90 e0       	ldi	r25, 0x00	; 0
 140:	01 99       	sbic	0x00, 1	; 0
 142:	02 c0       	rjmp	.+4      	; 0x148 <fire_sensor_read+0xc>
 144:	80 e0       	ldi	r24, 0x00	; 0
 146:	90 e0       	ldi	r25, 0x00	; 0
 148:	08 95       	ret

0000014a <uart_init>:
 14a:	90 93 90 00 	sts	0x0090, r25	; 0x800090 <__TEXT_REGION_LENGTH__+0x7e0090>
 14e:	89 b9       	out	0x09, r24	; 9
 150:	88 e1       	ldi	r24, 0x18	; 24
 152:	8a b9       	out	0x0a, r24	; 10
 154:	08 95       	ret

00000156 <uart_write>:
 156:	5d 9b       	sbis	0x0b, 5	; 11
 158:	fe cf       	rjmp	.-4      	; 0x156 <uart_write>
 15a:	8c b9       	out	0x0c, r24	; 12
 15c:	08 95       	ret

0000015e <uart_string>:
 15e:	cf 93       	push	r28
 160:	df 93       	push	r29
 162:	ec 01       	movw	r28, r24
 164:	88 81       	ld	r24, Y
 166:	88 23       	and	r24, r24
 168:	29 f0       	breq	.+10     	; 0x174 <uart_string+0x16>
 16a:	21 96       	adiw	r28, 0x01	; 1
 16c:	f4 df       	rcall	.-24     	; 0x156 <uart_write>
 16e:	89 91       	ld	r24, Y+
 170:	81 11       	cpse	r24, r1
 172:	fc cf       	rjmp	.-8      	; 0x16c <uart_string+0xe>
 174:	df 91       	pop	r29
 176:	cf 91       	pop	r28
 178:	08 95       	ret

0000017a <LCD_command>:
 17a:	98 2f       	mov	r25, r24
 17c:	90 7f       	andi	r25, 0xF0	; 240
 17e:	9b bb       	out	0x1b, r25	; 27
 180:	d8 98       	cbi	0x1b, 0	; 27
 182:	d9 98       	cbi	0x1b, 1	; 27
 184:	da 9a       	sbi	0x1b, 2	; 27
 186:	25 e0       	ldi	r18, 0x05	; 5
 188:	2a 95       	dec	r18
 18a:	f1 f7       	brne	.-4      	; 0x188 <LCD_command+0xe>
 18c:	00 00       	nop
 18e:	da 98       	cbi	0x1b, 2	; 27
 190:	20 e1       	ldi	r18, 0x10	; 16
 192:	82 9f       	mul	r24, r18
 194:	c0 01       	movw	r24, r0
 196:	11 24       	eor	r1, r1
 198:	8b bb       	out	0x1b, r24	; 27
 19a:	d8 98       	cbi	0x1b, 0	; 27
 19c:	d9 98       	cbi	0x1b, 1	; 27
 19e:	da 9a       	sbi	0x1b, 2	; 27
 1a0:	85 e0       	ldi	r24, 0x05	; 5
 1a2:	8a 95       	dec	r24
 1a4:	f1 f7       	brne	.-4      	; 0x1a2 <LCD_command+0x28>
 1a6:	00 00       	nop
 1a8:	da 98       	cbi	0x1b, 2	; 27
 1aa:	08 95       	ret

000001ac <LCD_init>:
 1ac:	2f ef       	ldi	r18, 0xFF	; 255
 1ae:	83 ef       	ldi	r24, 0xF3	; 243
 1b0:	91 e0       	ldi	r25, 0x01	; 1
 1b2:	21 50       	subi	r18, 0x01	; 1
 1b4:	80 40       	sbci	r24, 0x00	; 0
 1b6:	90 40       	sbci	r25, 0x00	; 0
 1b8:	e1 f7       	brne	.-8      	; 0x1b2 <LCD_init+0x6>
 1ba:	00 c0       	rjmp	.+0      	; 0x1bc <LCD_init+0x10>
 1bc:	00 00       	nop
 1be:	88 e2       	ldi	r24, 0x28	; 40
 1c0:	dc df       	rcall	.-72     	; 0x17a <LCD_command>
 1c2:	87 ec       	ldi	r24, 0xC7	; 199
 1c4:	90 e0       	ldi	r25, 0x00	; 0
 1c6:	01 97       	sbiw	r24, 0x01	; 1
 1c8:	f1 f7       	brne	.-4      	; 0x1c6 <LCD_init+0x1a>
 1ca:	00 c0       	rjmp	.+0      	; 0x1cc <LCD_init+0x20>
 1cc:	00 00       	nop
 1ce:	8c e0       	ldi	r24, 0x0C	; 12
 1d0:	d4 df       	rcall	.-88     	; 0x17a <LCD_command>
 1d2:	87 ec       	ldi	r24, 0xC7	; 199
 1d4:	90 e0       	ldi	r25, 0x00	; 0
 1d6:	01 97       	sbiw	r24, 0x01	; 1
 1d8:	f1 f7       	brne	.-4      	; 0x1d6 <LCD_init+0x2a>
 1da:	00 c0       	rjmp	.+0      	; 0x1dc <LCD_init+0x30>
 1dc:	00 00       	nop
 1de:	81 e0       	ldi	r24, 0x01	; 1
 1e0:	cc df       	rcall	.-104    	; 0x17a <LCD_command>
 1e2:	8f e3       	ldi	r24, 0x3F	; 63
 1e4:	9f e1       	ldi	r25, 0x1F	; 31
 1e6:	01 97       	sbiw	r24, 0x01	; 1
 1e8:	f1 f7       	brne	.-4      	; 0x1e6 <LCD_init+0x3a>
 1ea:	00 c0       	rjmp	.+0      	; 0x1ec <LCD_init+0x40>
 1ec:	00 00       	nop
 1ee:	86 e0       	ldi	r24, 0x06	; 6
 1f0:	c4 df       	rcall	.-120    	; 0x17a <LCD_command>
 1f2:	87 ec       	ldi	r24, 0xC7	; 199
 1f4:	90 e0       	ldi	r25, 0x00	; 0
 1f6:	01 97       	sbiw	r24, 0x01	; 1
 1f8:	f1 f7       	brne	.-4      	; 0x1f6 <LCD_init+0x4a>
 1fa:	00 c0       	rjmp	.+0      	; 0x1fc <LCD_init+0x50>
 1fc:	00 00       	nop
 1fe:	08 95       	ret

00000200 <LCD_data>:
 200:	ef e8       	ldi	r30, 0x8F	; 143
 202:	f1 e0       	ldi	r31, 0x01	; 1
 204:	31 97       	sbiw	r30, 0x01	; 1
 206:	f1 f7       	brne	.-4      	; 0x204 <LCD_data+0x4>
 208:	00 c0       	rjmp	.+0      	; 0x20a <LCD_data+0xa>
 20a:	00 00       	nop
 20c:	98 2f       	mov	r25, r24
 20e:	90 7f       	andi	r25, 0xF0	; 240
 210:	9b bb       	out	0x1b, r25	; 27
 212:	d8 9a       	sbi	0x1b, 0	; 27
 214:	d9 98       	cbi	0x1b, 1	; 27
 216:	da 9a       	sbi	0x1b, 2	; 27
 218:	f5 e0       	ldi	r31, 0x05	; 5
 21a:	fa 95       	dec	r31
 21c:	f1 f7       	brne	.-4      	; 0x21a <LCD_data+0x1a>
 21e:	00 00       	nop
 220:	da 98       	cbi	0x1b, 2	; 27
 222:	20 e1       	ldi	r18, 0x10	; 16
 224:	82 9f       	mul	r24, r18
 226:	c0 01       	movw	r24, r0
 228:	11 24       	eor	r1, r1
 22a:	8b bb       	out	0x1b, r24	; 27
 22c:	d8 9a       	sbi	0x1b, 0	; 27
 22e:	d9 98       	cbi	0x1b, 1	; 27
 230:	da 9a       	sbi	0x1b, 2	; 27
 232:	85 e0       	ldi	r24, 0x05	; 5
 234:	8a 95       	dec	r24
 236:	f1 f7       	brne	.-4      	; 0x234 <LCD_data+0x34>
 238:	00 00       	nop
 23a:	da 98       	cbi	0x1b, 2	; 27
 23c:	08 95       	ret

0000023e <LCD_wString>:
 23e:	cf 93       	push	r28
 240:	df 93       	push	r29
 242:	ec 01       	movw	r28, r24
 244:	88 81       	ld	r24, Y
 246:	88 23       	and	r24, r24
 248:	29 f0       	breq	.+10     	; 0x254 <LCD_wString+0x16>
 24a:	21 96       	adiw	r28, 0x01	; 1
 24c:	d9 df       	rcall	.-78     	; 0x200 <LCD_data>
 24e:	89 91       	ld	r24, Y+
 250:	81 11       	cpse	r24, r1
 252:	fc cf       	rjmp	.-8      	; 0x24c <LCD_wString+0xe>
 254:	df 91       	pop	r29
 256:	cf 91       	pop	r28
 258:	08 95       	ret

0000025a <SERVO_init>:
#ifndef SERVO_H_
#define SERVO_H_

int SERVO_init(void)
{
	TCCR1A = (1 << COM1A1) | (1 << WGM11); // PWM 설정
 25a:	82 e8       	ldi	r24, 0x82	; 130
 25c:	8f bd       	out	0x2f, r24	; 47
	TCCR1B = (1 << WGM13) | (1 << WGM12) | (1 << CS11) | (1 << CS10); // 분주비 설정
 25e:	8b e1       	ldi	r24, 0x1B	; 27
 260:	8e bd       	out	0x2e, r24	; 46
	ICR1 = 4999; // ICR1 set to TOP
 262:	87 e8       	ldi	r24, 0x87	; 135
 264:	93 e1       	ldi	r25, 0x13	; 19
 266:	97 bd       	out	0x27, r25	; 39
 268:	86 bd       	out	0x26, r24	; 38
	OCR1A = 500; // 0 degree
 26a:	84 ef       	ldi	r24, 0xF4	; 244
 26c:	91 e0       	ldi	r25, 0x01	; 1
 26e:	9b bd       	out	0x2b, r25	; 43
 270:	8a bd       	out	0x2a, r24	; 42
	TCNT1 = 0x00; // Strating point
 272:	1d bc       	out	0x2d, r1	; 45
 274:	1c bc       	out	0x2c, r1	; 44
}
 276:	08 95       	ret

00000278 <SERVO_ON>:
		
void SERVO_ON() // 가스가 통한다
{
	OCR1A = 250;
 278:	8a ef       	ldi	r24, 0xFA	; 250
 27a:	90 e0       	ldi	r25, 0x00	; 0
 27c:	9b bd       	out	0x2b, r25	; 43
 27e:	8a bd       	out	0x2a, r24	; 42
	#else
		//round up by default
		__ticks_dc = (uint32_t)(ceil(fabs(__tmp)));
	#endif

	__builtin_avr_delay_cycles(__ticks_dc);
 280:	2f ef       	ldi	r18, 0xFF	; 255
 282:	81 ee       	ldi	r24, 0xE1	; 225
 284:	94 e0       	ldi	r25, 0x04	; 4
 286:	21 50       	subi	r18, 0x01	; 1
 288:	80 40       	sbci	r24, 0x00	; 0
 28a:	90 40       	sbci	r25, 0x00	; 0
 28c:	e1 f7       	brne	.-8      	; 0x286 <SERVO_ON+0xe>
 28e:	00 c0       	rjmp	.+0      	; 0x290 <SERVO_ON+0x18>
 290:	00 00       	nop
 292:	08 95       	ret

00000294 <SERVO_OFF>:
	_delay_ms(100);
}

void SERVO_OFF() // 모터를 돌려서 가스를 차단시킨다
{
	OCR1A = 500;
 294:	84 ef       	ldi	r24, 0xF4	; 244
 296:	91 e0       	ldi	r25, 0x01	; 1
 298:	9b bd       	out	0x2b, r25	; 43
 29a:	8a bd       	out	0x2a, r24	; 42
 29c:	2f ef       	ldi	r18, 0xFF	; 255
 29e:	81 ee       	ldi	r24, 0xE1	; 225
 2a0:	94 e0       	ldi	r25, 0x04	; 4
 2a2:	21 50       	subi	r18, 0x01	; 1
 2a4:	80 40       	sbci	r24, 0x00	; 0
 2a6:	90 40       	sbci	r25, 0x00	; 0
 2a8:	e1 f7       	brne	.-8      	; 0x2a2 <SERVO_OFF+0xe>
 2aa:	00 c0       	rjmp	.+0      	; 0x2ac <SERVO_OFF+0x18>
 2ac:	00 00       	nop
 2ae:	08 95       	ret

000002b0 <uart_check>:
int mode = 0; // 자동, 수동
int fanm_s = 0, serm_s = 1, rela_s = 1, buzz_s = 0; // 팬모터, 서보모터, 릴레이, 부저 on/off 상태

void uart_check() // 수신 완료일때, 내용 확인하는 함수
{
	uart_i = 0;
 2b0:	10 92 73 01 	sts	0x0173, r1	; 0x800173 <uart_i+0x1>
 2b4:	10 92 72 01 	sts	0x0172, r1	; 0x800172 <uart_i>
	uart_finish = 0;
 2b8:	10 92 71 01 	sts	0x0171, r1	; 0x800171 <uart_finish+0x1>
 2bc:	10 92 70 01 	sts	0x0170, r1	; 0x800170 <uart_finish>
	
	if(strcmp(uart_arr, "auto")==0) mode = 0; // 자동 모드
 2c0:	64 e0       	ldi	r22, 0x04	; 4
 2c2:	71 e0       	ldi	r23, 0x01	; 1
 2c4:	84 e7       	ldi	r24, 0x74	; 116
 2c6:	91 e0       	ldi	r25, 0x01	; 1
 2c8:	3f d3       	rcall	.+1662   	; 0x948 <strcmp>
 2ca:	89 2b       	or	r24, r25
 2cc:	29 f4       	brne	.+10     	; 0x2d8 <uart_check+0x28>
 2ce:	10 92 6f 01 	sts	0x016F, r1	; 0x80016f <mode+0x1>
 2d2:	10 92 6e 01 	sts	0x016E, r1	; 0x80016e <mode>
 2d6:	56 c0       	rjmp	.+172    	; 0x384 <uart_check+0xd4>
	else if(strcmp(uart_arr, "sudo")==0) mode = 1; // 수동 모드
 2d8:	69 e0       	ldi	r22, 0x09	; 9
 2da:	71 e0       	ldi	r23, 0x01	; 1
 2dc:	84 e7       	ldi	r24, 0x74	; 116
 2de:	91 e0       	ldi	r25, 0x01	; 1
 2e0:	33 d3       	rcall	.+1638   	; 0x948 <strcmp>
 2e2:	89 2b       	or	r24, r25
 2e4:	39 f4       	brne	.+14     	; 0x2f4 <uart_check+0x44>
 2e6:	81 e0       	ldi	r24, 0x01	; 1
 2e8:	90 e0       	ldi	r25, 0x00	; 0
 2ea:	90 93 6f 01 	sts	0x016F, r25	; 0x80016f <mode+0x1>
 2ee:	80 93 6e 01 	sts	0x016E, r24	; 0x80016e <mode>
 2f2:	07 c0       	rjmp	.+14     	; 0x302 <uart_check+0x52>
	
	if(mode == 1) // 수동 모드일 때
 2f4:	80 91 6e 01 	lds	r24, 0x016E	; 0x80016e <mode>
 2f8:	90 91 6f 01 	lds	r25, 0x016F	; 0x80016f <mode+0x1>
 2fc:	01 97       	sbiw	r24, 0x01	; 1
 2fe:	09 f0       	breq	.+2      	; 0x302 <uart_check+0x52>
 300:	41 c0       	rjmp	.+130    	; 0x384 <uart_check+0xd4>
	{
		if(strcmp(uart_arr, "fanm")==0) fanm_s = !fanm_s; // 팬 모터 버튼 클릭
 302:	6e e0       	ldi	r22, 0x0E	; 14
 304:	71 e0       	ldi	r23, 0x01	; 1
 306:	84 e7       	ldi	r24, 0x74	; 116
 308:	91 e0       	ldi	r25, 0x01	; 1
 30a:	1e d3       	rcall	.+1596   	; 0x948 <strcmp>
 30c:	89 2b       	or	r24, r25
 30e:	79 f4       	brne	.+30     	; 0x32e <uart_check+0x7e>
 310:	81 e0       	ldi	r24, 0x01	; 1
 312:	90 e0       	ldi	r25, 0x00	; 0
 314:	20 91 6c 01 	lds	r18, 0x016C	; 0x80016c <fanm_s>
 318:	30 91 6d 01 	lds	r19, 0x016D	; 0x80016d <fanm_s+0x1>
 31c:	23 2b       	or	r18, r19
 31e:	11 f0       	breq	.+4      	; 0x324 <uart_check+0x74>
 320:	80 e0       	ldi	r24, 0x00	; 0
 322:	90 e0       	ldi	r25, 0x00	; 0
 324:	90 93 6d 01 	sts	0x016D, r25	; 0x80016d <fanm_s+0x1>
 328:	80 93 6c 01 	sts	0x016C, r24	; 0x80016c <fanm_s>
 32c:	2b c0       	rjmp	.+86     	; 0x384 <uart_check+0xd4>
		else if(strcmp(uart_arr, "serm")==0) serm_s = !serm_s; // 서보 보터 버튼 클릭
 32e:	63 e1       	ldi	r22, 0x13	; 19
 330:	71 e0       	ldi	r23, 0x01	; 1
 332:	84 e7       	ldi	r24, 0x74	; 116
 334:	91 e0       	ldi	r25, 0x01	; 1
 336:	08 d3       	rcall	.+1552   	; 0x948 <strcmp>
 338:	89 2b       	or	r24, r25
 33a:	79 f4       	brne	.+30     	; 0x35a <uart_check+0xaa>
 33c:	81 e0       	ldi	r24, 0x01	; 1
 33e:	90 e0       	ldi	r25, 0x00	; 0
 340:	20 91 02 01 	lds	r18, 0x0102	; 0x800102 <serm_s>
 344:	30 91 03 01 	lds	r19, 0x0103	; 0x800103 <serm_s+0x1>
 348:	23 2b       	or	r18, r19
 34a:	11 f0       	breq	.+4      	; 0x350 <uart_check+0xa0>
 34c:	80 e0       	ldi	r24, 0x00	; 0
 34e:	90 e0       	ldi	r25, 0x00	; 0
 350:	90 93 03 01 	sts	0x0103, r25	; 0x800103 <serm_s+0x1>
 354:	80 93 02 01 	sts	0x0102, r24	; 0x800102 <serm_s>
 358:	15 c0       	rjmp	.+42     	; 0x384 <uart_check+0xd4>
		else if(strcmp(uart_arr, "rela")==0) rela_s = !rela_s; // 릴레이 버튼 클릭
 35a:	68 e1       	ldi	r22, 0x18	; 24
 35c:	71 e0       	ldi	r23, 0x01	; 1
 35e:	84 e7       	ldi	r24, 0x74	; 116
 360:	91 e0       	ldi	r25, 0x01	; 1
 362:	f2 d2       	rcall	.+1508   	; 0x948 <strcmp>
 364:	89 2b       	or	r24, r25
 366:	71 f4       	brne	.+28     	; 0x384 <uart_check+0xd4>
 368:	81 e0       	ldi	r24, 0x01	; 1
 36a:	90 e0       	ldi	r25, 0x00	; 0
 36c:	20 91 00 01 	lds	r18, 0x0100	; 0x800100 <__data_start>
 370:	30 91 01 01 	lds	r19, 0x0101	; 0x800101 <__data_start+0x1>
 374:	23 2b       	or	r18, r19
 376:	11 f0       	breq	.+4      	; 0x37c <uart_check+0xcc>
 378:	80 e0       	ldi	r24, 0x00	; 0
 37a:	90 e0       	ldi	r25, 0x00	; 0
 37c:	90 93 01 01 	sts	0x0101, r25	; 0x800101 <__data_start+0x1>
 380:	80 93 00 01 	sts	0x0100, r24	; 0x800100 <__data_start>
	}
	memset(uart_arr, 0, 5); // uart 수신 문자열 초기화
 384:	85 e0       	ldi	r24, 0x05	; 5
 386:	e4 e7       	ldi	r30, 0x74	; 116
 388:	f1 e0       	ldi	r31, 0x01	; 1
 38a:	df 01       	movw	r26, r30
 38c:	1d 92       	st	X+, r1
 38e:	8a 95       	dec	r24
 390:	e9 f7       	brne	.-6      	; 0x38c <uart_check+0xdc>
 392:	08 95       	ret

00000394 <main>:
}

int main(void)
{
 394:	cf 93       	push	r28
 396:	df 93       	push	r29
 398:	cd b7       	in	r28, 0x3d	; 61
 39a:	de b7       	in	r29, 0x3e	; 62
 39c:	e4 97       	sbiw	r28, 0x34	; 52
 39e:	0f b6       	in	r0, 0x3f	; 63
 3a0:	f8 94       	cli
 3a2:	de bf       	out	0x3e, r29	; 62
 3a4:	0f be       	out	0x3f, r0	; 63
 3a6:	cd bf       	out	0x3d, r28	; 61
	DDRA = 0xFF; // 4bit LCD사용
 3a8:	8f ef       	ldi	r24, 0xFF	; 255
 3aa:	8a bb       	out	0x1a, r24	; 26
	PORTA = 0x00;
 3ac:	1b ba       	out	0x1b, r1	; 27
	DDRB = 0xFF; // 서보 모터 연결
 3ae:	87 bb       	out	0x17, r24	; 23
	PORTB = 0x00;
 3b0:	18 ba       	out	0x18, r1	; 24
	DDRC = 0xFF; // 부저, 팬모터, 릴레이 출력핀
 3b2:	84 bb       	out	0x14, r24	; 20
	PORTC = 0x04; // 평상시 포트 출력
 3b4:	84 e0       	ldi	r24, 0x04	; 4
 3b6:	85 bb       	out	0x15, r24	; 21
	DDRF = 0x00; // 가스, 불꽃, 온도센서 입력핀
 3b8:	10 92 61 00 	sts	0x0061, r1	; 0x800061 <__TEXT_REGION_LENGTH__+0x7e0061>
	
	uart_init(BAUDRATE(9600)); // baudrate 속도 설정
 3bc:	87 e6       	ldi	r24, 0x67	; 103
 3be:	90 e0       	ldi	r25, 0x00	; 0
 3c0:	c4 de       	rcall	.-632    	; 0x14a <uart_init>
	sei();
	
	LCD_init();
 3c2:	78 94       	sei
	SERVO_init();
 3c4:	f3 de       	rcall	.-538    	; 0x1ac <LCD_init>
 3c6:	49 df       	rcall	.-366    	; 0x25a <SERVO_init>
	
	float temp, gas;
	int temp_state = 0, gas_state = 0, fire_state = 0;
	char buff[50]; // uart 송신 문자열
	
	memset(uart_arr, 0, 5); // uart 수신 문자열 초기화
 3c8:	85 e0       	ldi	r24, 0x05	; 5
 3ca:	e4 e7       	ldi	r30, 0x74	; 116
 3cc:	f1 e0       	ldi	r31, 0x01	; 1
 3ce:	df 01       	movw	r26, r30
 3d0:	1d 92       	st	X+, r1
 3d2:	8a 95       	dec	r24
 3d4:	e9 f7       	brne	.-6      	; 0x3d0 <main+0x3c>
		_delay_ms(100);
		
		fire_state = fire_sensor_read();
		_delay_ms(100);
		
		sprintf(buff, "temp : %3.1f, gas : %.1f, fire : %d     ", temp, gas, fire_state);
 3d6:	0f 2e       	mov	r0, r31
 3d8:	fd e1       	ldi	r31, 0x1D	; 29
 3da:	6f 2e       	mov	r6, r31
 3dc:	f1 e0       	ldi	r31, 0x01	; 1
 3de:	7f 2e       	mov	r7, r31
 3e0:	f0 2d       	mov	r31, r0
 3e2:	ce 01       	movw	r24, r28
 3e4:	01 96       	adiw	r24, 0x01	; 1
 3e6:	7c 01       	movw	r14, r24
		uart_string(buff);
		
		sprintf(buff, "%.1fC  %.1f%%  %d", temp, gas*20, fire_state);
 3e8:	0f 2e       	mov	r0, r31
 3ea:	f6 e4       	ldi	r31, 0x46	; 70
 3ec:	4f 2e       	mov	r4, r31
 3ee:	f1 e0       	ldi	r31, 0x01	; 1
 3f0:	5f 2e       	mov	r5, r31
 3f2:	f0 2d       	mov	r31, r0
			sprintf(buff, "fire fire fire %d", 0); // 블루투스로 화재 신호 전송
			uart_string(buff);
		}
		else if(temp_state==1 || gas_state==1) // 팬 모터만 작동
		{
			fanm_s = 1; // 팬 동작
 3f4:	88 24       	eor	r8, r8
 3f6:	83 94       	inc	r8
 3f8:	91 2c       	mov	r9, r1
	
	memset(uart_arr, 0, 5); // uart 수신 문자열 초기화
	
    while (1) 
    {
		if(uart_finish == 1) uart_check(); // 수신 완료일때, 내용 확인
 3fa:	80 91 70 01 	lds	r24, 0x0170	; 0x800170 <uart_finish>
 3fe:	90 91 71 01 	lds	r25, 0x0171	; 0x800171 <uart_finish+0x1>
 402:	01 97       	sbiw	r24, 0x01	; 1
 404:	09 f4       	brne	.+2      	; 0x408 <__LOCK_REGION_LENGTH__+0x8>
		
		temp = temp_sensor_read();
 406:	54 df       	rcall	.-344    	; 0x2b0 <uart_check>
 408:	70 de       	rcall	.-800    	; 0xea <temp_sensor_read>
 40a:	a6 2e       	mov	r10, r22
 40c:	b7 2e       	mov	r11, r23
 40e:	c8 2e       	mov	r12, r24
 410:	d9 2e       	mov	r13, r25
 412:	9f ef       	ldi	r25, 0xFF	; 255
 414:	a1 ee       	ldi	r26, 0xE1	; 225
 416:	b4 e0       	ldi	r27, 0x04	; 4
 418:	91 50       	subi	r25, 0x01	; 1
 41a:	a0 40       	sbci	r26, 0x00	; 0
 41c:	b0 40       	sbci	r27, 0x00	; 0
 41e:	e1 f7       	brne	.-8      	; 0x418 <__LOCK_REGION_LENGTH__+0x18>
 420:	00 c0       	rjmp	.+0      	; 0x422 <__LOCK_REGION_LENGTH__+0x22>
		if(temp > 30.0) temp_state = 1; // 30도 이상일때
		else temp_state = 0;
		_delay_ms(100);
		
		gas = gas_sensor_read();
 422:	00 00       	nop
 424:	79 de       	rcall	.-782    	; 0x118 <gas_sensor_read>
 426:	6b ab       	std	Y+51, r22	; 0x33
 428:	7c ab       	std	Y+52, r23	; 0x34
 42a:	28 2e       	mov	r2, r24
 42c:	39 2e       	mov	r3, r25
 42e:	2f ef       	ldi	r18, 0xFF	; 255
 430:	81 ee       	ldi	r24, 0xE1	; 225
 432:	94 e0       	ldi	r25, 0x04	; 4
 434:	21 50       	subi	r18, 0x01	; 1
 436:	80 40       	sbci	r24, 0x00	; 0
 438:	90 40       	sbci	r25, 0x00	; 0
 43a:	e1 f7       	brne	.-8      	; 0x434 <__LOCK_REGION_LENGTH__+0x34>
 43c:	00 c0       	rjmp	.+0      	; 0x43e <__LOCK_REGION_LENGTH__+0x3e>
		if(temp > 3.0) gas_state = 1; // 3.0이상일때
		else gas_state = 0;
		_delay_ms(100);
		
		fire_state = fire_sensor_read();
 43e:	00 00       	nop
 440:	7d de       	rcall	.-774    	; 0x13c <fire_sensor_read>
 442:	8c 01       	movw	r16, r24
 444:	af ef       	ldi	r26, 0xFF	; 255
 446:	b1 ee       	ldi	r27, 0xE1	; 225
 448:	24 e0       	ldi	r18, 0x04	; 4
 44a:	a1 50       	subi	r26, 0x01	; 1
 44c:	b0 40       	sbci	r27, 0x00	; 0
 44e:	20 40       	sbci	r18, 0x00	; 0
 450:	e1 f7       	brne	.-8      	; 0x44a <__LOCK_REGION_LENGTH__+0x4a>
 452:	00 c0       	rjmp	.+0      	; 0x454 <__LOCK_REGION_LENGTH__+0x54>
 454:	00 00       	nop
		_delay_ms(100);
		
		sprintf(buff, "temp : %3.1f, gas : %.1f, fire : %d     ", temp, gas, fire_state);
 456:	1f 93       	push	r17
 458:	8f 93       	push	r24
 45a:	3f 92       	push	r3
 45c:	2f 92       	push	r2
 45e:	8c a9       	ldd	r24, Y+52	; 0x34
 460:	8f 93       	push	r24
 462:	9b a9       	ldd	r25, Y+51	; 0x33
 464:	9f 93       	push	r25
 466:	df 92       	push	r13
 468:	cf 92       	push	r12
 46a:	bf 92       	push	r11
 46c:	af 92       	push	r10
 46e:	7f 92       	push	r7
 470:	6f 92       	push	r6
 472:	ff 92       	push	r15
 474:	ef 92       	push	r14
		uart_string(buff);
 476:	71 d2       	rcall	.+1250   	; 0x95a <sprintf>
 478:	c7 01       	movw	r24, r14
 47a:	71 de       	rcall	.-798    	; 0x15e <uart_string>
		
		sprintf(buff, "%.1fC  %.1f%%  %d", temp, gas*20, fire_state);
 47c:	1f 93       	push	r17
 47e:	0f 93       	push	r16
 480:	20 e0       	ldi	r18, 0x00	; 0
 482:	30 e0       	ldi	r19, 0x00	; 0
 484:	40 ea       	ldi	r20, 0xA0	; 160
 486:	51 e4       	ldi	r21, 0x41	; 65
 488:	bb a9       	ldd	r27, Y+51	; 0x33
 48a:	ac a9       	ldd	r26, Y+52	; 0x34
 48c:	6b 2f       	mov	r22, r27
 48e:	7a 2f       	mov	r23, r26
 490:	82 2d       	mov	r24, r2
 492:	93 2d       	mov	r25, r3
 494:	d2 d1       	rcall	.+932    	; 0x83a <__mulsf3>
 496:	9f 93       	push	r25
 498:	8f 93       	push	r24
 49a:	7f 93       	push	r23
 49c:	6f 93       	push	r22
 49e:	df 92       	push	r13
 4a0:	cf 92       	push	r12
 4a2:	bf 92       	push	r11
 4a4:	af 92       	push	r10
 4a6:	5f 92       	push	r5
 4a8:	4f 92       	push	r4
 4aa:	ff 92       	push	r15
 4ac:	ef 92       	push	r14
		LCD_command(0x01);
 4ae:	55 d2       	rcall	.+1194   	; 0x95a <sprintf>
 4b0:	81 e0       	ldi	r24, 0x01	; 1
 4b2:	63 de       	rcall	.-826    	; 0x17a <LCD_command>
 4b4:	af e3       	ldi	r26, 0x3F	; 63
 4b6:	bf e1       	ldi	r27, 0x1F	; 31
 4b8:	11 97       	sbiw	r26, 0x01	; 1
 4ba:	f1 f7       	brne	.-4      	; 0x4b8 <__LOCK_REGION_LENGTH__+0xb8>
 4bc:	00 c0       	rjmp	.+0      	; 0x4be <__LOCK_REGION_LENGTH__+0xbe>
 4be:	00 00       	nop
 4c0:	80 e8       	ldi	r24, 0x80	; 128
 4c2:	5b de       	rcall	.-842    	; 0x17a <LCD_command>
		_delay_ms(2);
		LCD_setcursor(0, 0);
		LCD_wString(buff);
 4c4:	c7 01       	movw	r24, r14
 4c6:	bb de       	rcall	.-650    	; 0x23e <LCD_wString>
 4c8:	0f b6       	in	r0, 0x3f	; 63
		
		if(fire_state==1) // 화재발생
 4ca:	f8 94       	cli
 4cc:	de bf       	out	0x3e, r29	; 62
 4ce:	0f be       	out	0x3f, r0	; 63
 4d0:	cd bf       	out	0x3d, r28	; 61
 4d2:	01 30       	cpi	r16, 0x01	; 1
 4d4:	11 05       	cpc	r17, r1
 4d6:	11 f5       	brne	.+68     	; 0x51c <__LOCK_REGION_LENGTH__+0x11c>
 4d8:	10 92 6d 01 	sts	0x016D, r1	; 0x80016d <fanm_s+0x1>
		{
			fanm_s = 0; // 팬 끄기
 4dc:	10 92 6c 01 	sts	0x016C, r1	; 0x80016c <fanm_s>
 4e0:	10 92 03 01 	sts	0x0103, r1	; 0x800103 <serm_s+0x1>
			serm_s = 0; // 서보모터 끄기(가스 차단)
 4e4:	10 92 02 01 	sts	0x0102, r1	; 0x800102 <serm_s>
 4e8:	10 92 01 01 	sts	0x0101, r1	; 0x800101 <__data_start+0x1>
			rela_s = 0; // 릴레이 끄기(전기 차단)
 4ec:	10 92 00 01 	sts	0x0100, r1	; 0x800100 <__data_start>
			buzz_s = 1; // 부저 동작
 4f0:	90 92 6b 01 	sts	0x016B, r9	; 0x80016b <__data_end+0x1>
 4f4:	80 92 6a 01 	sts	0x016A, r8	; 0x80016a <__data_end>
			
			sprintf(buff, "fire fire fire %d", 0); // 블루투스로 화재 신호 전송
 4f8:	1f 92       	push	r1
 4fa:	1f 92       	push	r1
 4fc:	a8 e5       	ldi	r26, 0x58	; 88
 4fe:	b1 e0       	ldi	r27, 0x01	; 1
 500:	bf 93       	push	r27
 502:	af 93       	push	r26
 504:	ff 92       	push	r15
 506:	ef 92       	push	r14
 508:	28 d2       	rcall	.+1104   	; 0x95a <sprintf>
			uart_string(buff);
 50a:	c7 01       	movw	r24, r14
 50c:	28 de       	rcall	.-944    	; 0x15e <uart_string>
 50e:	0f 90       	pop	r0
 510:	0f 90       	pop	r0
 512:	0f 90       	pop	r0
 514:	0f 90       	pop	r0
 516:	0f 90       	pop	r0
 518:	0f 90       	pop	r0
 51a:	37 c0       	rjmp	.+110    	; 0x58a <__LOCK_REGION_LENGTH__+0x18a>
		}
		else if(temp_state==1 || gas_state==1) // 팬 모터만 작동
 51c:	20 e0       	ldi	r18, 0x00	; 0
 51e:	30 e0       	ldi	r19, 0x00	; 0
 520:	40 ef       	ldi	r20, 0xF0	; 240
 522:	51 e4       	ldi	r21, 0x41	; 65
 524:	6a 2d       	mov	r22, r10
 526:	7b 2d       	mov	r23, r11
 528:	8c 2d       	mov	r24, r12
 52a:	9d 2d       	mov	r25, r13
 52c:	82 d1       	rcall	.+772    	; 0x832 <__gesf2>
 52e:	18 16       	cp	r1, r24
 530:	5c f0       	brlt	.+22     	; 0x548 <__LOCK_REGION_LENGTH__+0x148>
 532:	20 e0       	ldi	r18, 0x00	; 0
 534:	30 e0       	ldi	r19, 0x00	; 0
 536:	40 e4       	ldi	r20, 0x40	; 64
 538:	50 e4       	ldi	r21, 0x40	; 64
 53a:	6a 2d       	mov	r22, r10
 53c:	7b 2d       	mov	r23, r11
 53e:	8c 2d       	mov	r24, r12
 540:	9d 2d       	mov	r25, r13
 542:	77 d1       	rcall	.+750    	; 0x832 <__gesf2>
 544:	18 16       	cp	r1, r24
 546:	8c f4       	brge	.+34     	; 0x56a <__LOCK_REGION_LENGTH__+0x16a>
 548:	90 92 6d 01 	sts	0x016D, r9	; 0x80016d <fanm_s+0x1>
		{
			fanm_s = 1; // 팬 동작
 54c:	80 92 6c 01 	sts	0x016C, r8	; 0x80016c <fanm_s>
 550:	90 92 03 01 	sts	0x0103, r9	; 0x800103 <serm_s+0x1>
			serm_s = 1; // 서보모터 동작(가스 통함)
 554:	80 92 02 01 	sts	0x0102, r8	; 0x800102 <serm_s>
 558:	90 92 01 01 	sts	0x0101, r9	; 0x800101 <__data_start+0x1>
			rela_s = 1; // 릴레이 동작(전기 통함)
 55c:	80 92 00 01 	sts	0x0100, r8	; 0x800100 <__data_start>
 560:	10 92 6b 01 	sts	0x016B, r1	; 0x80016b <__data_end+0x1>
			buzz_s = 0; // 부저 끄기
 564:	10 92 6a 01 	sts	0x016A, r1	; 0x80016a <__data_end>
 568:	10 c0       	rjmp	.+32     	; 0x58a <__LOCK_REGION_LENGTH__+0x18a>
 56a:	10 92 6d 01 	sts	0x016D, r1	; 0x80016d <fanm_s+0x1>
		}
		else // 평상시
		{
			fanm_s = 0; // 팬 끄기
 56e:	10 92 6c 01 	sts	0x016C, r1	; 0x80016c <fanm_s>
 572:	90 92 03 01 	sts	0x0103, r9	; 0x800103 <serm_s+0x1>
			serm_s = 1; // 서보모터 동작(가스 통함)
 576:	80 92 02 01 	sts	0x0102, r8	; 0x800102 <serm_s>
 57a:	90 92 01 01 	sts	0x0101, r9	; 0x800101 <__data_start+0x1>
			rela_s = 1; // 릴레이 동작(전기 통함)
 57e:	80 92 00 01 	sts	0x0100, r8	; 0x800100 <__data_start>
 582:	10 92 6b 01 	sts	0x016B, r1	; 0x80016b <__data_end+0x1>
			buzz_s = 0; // 부저 끄기
 586:	10 92 6a 01 	sts	0x016A, r1	; 0x80016a <__data_end>
 58a:	15 ba       	out	0x15, r1	; 21
		}
		
		PORTC = 0x00;
 58c:	80 91 6a 01 	lds	r24, 0x016A	; 0x80016a <__data_end>
		if(buzz_s == 1) PORTC |= 0x01; // PC0 onS
 590:	90 91 6b 01 	lds	r25, 0x016B	; 0x80016b <__data_end+0x1>
 594:	01 97       	sbiw	r24, 0x01	; 1
 596:	09 f4       	brne	.+2      	; 0x59a <__LOCK_REGION_LENGTH__+0x19a>
 598:	a8 9a       	sbi	0x15, 0	; 21
 59a:	80 91 6c 01 	lds	r24, 0x016C	; 0x80016c <fanm_s>
		else;
		if(fanm_s == 1) PORTC |= 0x02; // PC1 on
 59e:	90 91 6d 01 	lds	r25, 0x016D	; 0x80016d <fanm_s+0x1>
 5a2:	01 97       	sbiw	r24, 0x01	; 1
 5a4:	09 f4       	brne	.+2      	; 0x5a8 <__LOCK_REGION_LENGTH__+0x1a8>
		else;
		if(rela_s == 1) PORTC |= 0x04; // PC2 on
 5a6:	a9 9a       	sbi	0x15, 1	; 21
 5a8:	80 91 00 01 	lds	r24, 0x0100	; 0x800100 <__data_start>
 5ac:	90 91 01 01 	lds	r25, 0x0101	; 0x800101 <__data_start+0x1>
 5b0:	01 97       	sbiw	r24, 0x01	; 1
 5b2:	09 f4       	brne	.+2      	; 0x5b6 <__LOCK_REGION_LENGTH__+0x1b6>
		else;
		if(serm_s == 1) SERVO_ON();
 5b4:	aa 9a       	sbi	0x15, 2	; 21
 5b6:	80 91 02 01 	lds	r24, 0x0102	; 0x800102 <serm_s>
 5ba:	90 91 03 01 	lds	r25, 0x0103	; 0x800103 <serm_s+0x1>
 5be:	01 97       	sbiw	r24, 0x01	; 1
 5c0:	11 f4       	brne	.+4      	; 0x5c6 <__LOCK_REGION_LENGTH__+0x1c6>
 5c2:	5a de       	rcall	.-844    	; 0x278 <SERVO_ON>
 5c4:	01 c0       	rjmp	.+2      	; 0x5c8 <__LOCK_REGION_LENGTH__+0x1c8>
		else SERVO_OFF();
 5c6:	66 de       	rcall	.-820    	; 0x294 <SERVO_OFF>
 5c8:	8f ef       	ldi	r24, 0xFF	; 255
 5ca:	99 e6       	ldi	r25, 0x69	; 105
 5cc:	a8 e1       	ldi	r26, 0x18	; 24
 5ce:	81 50       	subi	r24, 0x01	; 1
 5d0:	90 40       	sbci	r25, 0x00	; 0
 5d2:	a0 40       	sbci	r26, 0x00	; 0
 5d4:	e1 f7       	brne	.-8      	; 0x5ce <__LOCK_REGION_LENGTH__+0x1ce>
 5d6:	00 c0       	rjmp	.+0      	; 0x5d8 <__LOCK_REGION_LENGTH__+0x1d8>
 5d8:	00 00       	nop
 5da:	0f cf       	rjmp	.-482    	; 0x3fa <main+0x66>

000005dc <__vector_18>:
 5dc:	1f 92       	push	r1
		_delay_ms(500); // 0.5초마다 측정
    }
}

ISR(USART0_RX_vect) // uart에 들어온 값이 있을 때 실행
{
 5de:	0f 92       	push	r0
 5e0:	0f b6       	in	r0, 0x3f	; 63
 5e2:	0f 92       	push	r0
 5e4:	11 24       	eor	r1, r1
 5e6:	0b b6       	in	r0, 0x3b	; 59
 5e8:	0f 92       	push	r0
 5ea:	2f 93       	push	r18
 5ec:	3f 93       	push	r19
 5ee:	4f 93       	push	r20
 5f0:	8f 93       	push	r24
 5f2:	9f 93       	push	r25
 5f4:	ef 93       	push	r30
 5f6:	ff 93       	push	r31
	unsigned char re = UDR0; // UDR0에 레지스터에 데이터가 저장이 된다.
 5f8:	4c b1       	in	r20, 0x0c	; 12
	uart_arr[uart_i++] = re;
 5fa:	80 91 72 01 	lds	r24, 0x0172	; 0x800172 <uart_i>
 5fe:	90 91 73 01 	lds	r25, 0x0173	; 0x800173 <uart_i+0x1>
 602:	9c 01       	movw	r18, r24
 604:	2f 5f       	subi	r18, 0xFF	; 255
 606:	3f 4f       	sbci	r19, 0xFF	; 255
 608:	30 93 73 01 	sts	0x0173, r19	; 0x800173 <uart_i+0x1>
 60c:	20 93 72 01 	sts	0x0172, r18	; 0x800172 <uart_i>
 610:	fc 01       	movw	r30, r24
 612:	ec 58       	subi	r30, 0x8C	; 140
 614:	fe 4f       	sbci	r31, 0xFE	; 254
 616:	40 83       	st	Z, r20
	if(uart_i == 4) uart_finish = 1;
 618:	24 30       	cpi	r18, 0x04	; 4
 61a:	31 05       	cpc	r19, r1
 61c:	31 f4       	brne	.+12     	; 0x62a <__vector_18+0x4e>
 61e:	81 e0       	ldi	r24, 0x01	; 1
 620:	90 e0       	ldi	r25, 0x00	; 0
 622:	90 93 71 01 	sts	0x0171, r25	; 0x800171 <uart_finish+0x1>
 626:	80 93 70 01 	sts	0x0170, r24	; 0x800170 <uart_finish>
 62a:	ff 91       	pop	r31
 62c:	ef 91       	pop	r30
 62e:	9f 91       	pop	r25
 630:	8f 91       	pop	r24
 632:	4f 91       	pop	r20
 634:	3f 91       	pop	r19
 636:	2f 91       	pop	r18
 638:	0f 90       	pop	r0
 63a:	0b be       	out	0x3b, r0	; 59
 63c:	0f 90       	pop	r0
 63e:	0f be       	out	0x3f, r0	; 63
 640:	0f 90       	pop	r0
 642:	1f 90       	pop	r1
 644:	18 95       	reti

00000646 <__divsf3>:
 646:	0c d0       	rcall	.+24     	; 0x660 <__divsf3x>
 648:	ba c0       	rjmp	.+372    	; 0x7be <__fp_round>
 64a:	b2 d0       	rcall	.+356    	; 0x7b0 <__fp_pscB>
 64c:	40 f0       	brcs	.+16     	; 0x65e <__divsf3+0x18>
 64e:	a9 d0       	rcall	.+338    	; 0x7a2 <__fp_pscA>
 650:	30 f0       	brcs	.+12     	; 0x65e <__divsf3+0x18>
 652:	21 f4       	brne	.+8      	; 0x65c <__divsf3+0x16>
 654:	5f 3f       	cpi	r21, 0xFF	; 255
 656:	19 f0       	breq	.+6      	; 0x65e <__divsf3+0x18>
 658:	9b c0       	rjmp	.+310    	; 0x790 <__fp_inf>
 65a:	51 11       	cpse	r21, r1
 65c:	e4 c0       	rjmp	.+456    	; 0x826 <__fp_szero>
 65e:	9e c0       	rjmp	.+316    	; 0x79c <__fp_nan>

00000660 <__divsf3x>:
 660:	bf d0       	rcall	.+382    	; 0x7e0 <__fp_split3>
 662:	98 f3       	brcs	.-26     	; 0x64a <__divsf3+0x4>

00000664 <__divsf3_pse>:
 664:	99 23       	and	r25, r25
 666:	c9 f3       	breq	.-14     	; 0x65a <__divsf3+0x14>
 668:	55 23       	and	r21, r21
 66a:	b1 f3       	breq	.-20     	; 0x658 <__divsf3+0x12>
 66c:	95 1b       	sub	r25, r21
 66e:	55 0b       	sbc	r21, r21
 670:	bb 27       	eor	r27, r27
 672:	aa 27       	eor	r26, r26
 674:	62 17       	cp	r22, r18
 676:	73 07       	cpc	r23, r19
 678:	84 07       	cpc	r24, r20
 67a:	38 f0       	brcs	.+14     	; 0x68a <__divsf3_pse+0x26>
 67c:	9f 5f       	subi	r25, 0xFF	; 255
 67e:	5f 4f       	sbci	r21, 0xFF	; 255
 680:	22 0f       	add	r18, r18
 682:	33 1f       	adc	r19, r19
 684:	44 1f       	adc	r20, r20
 686:	aa 1f       	adc	r26, r26
 688:	a9 f3       	breq	.-22     	; 0x674 <__divsf3_pse+0x10>
 68a:	33 d0       	rcall	.+102    	; 0x6f2 <__divsf3_pse+0x8e>
 68c:	0e 2e       	mov	r0, r30
 68e:	3a f0       	brmi	.+14     	; 0x69e <__divsf3_pse+0x3a>
 690:	e0 e8       	ldi	r30, 0x80	; 128
 692:	30 d0       	rcall	.+96     	; 0x6f4 <__divsf3_pse+0x90>
 694:	91 50       	subi	r25, 0x01	; 1
 696:	50 40       	sbci	r21, 0x00	; 0
 698:	e6 95       	lsr	r30
 69a:	00 1c       	adc	r0, r0
 69c:	ca f7       	brpl	.-14     	; 0x690 <__divsf3_pse+0x2c>
 69e:	29 d0       	rcall	.+82     	; 0x6f2 <__divsf3_pse+0x8e>
 6a0:	fe 2f       	mov	r31, r30
 6a2:	27 d0       	rcall	.+78     	; 0x6f2 <__divsf3_pse+0x8e>
 6a4:	66 0f       	add	r22, r22
 6a6:	77 1f       	adc	r23, r23
 6a8:	88 1f       	adc	r24, r24
 6aa:	bb 1f       	adc	r27, r27
 6ac:	26 17       	cp	r18, r22
 6ae:	37 07       	cpc	r19, r23
 6b0:	48 07       	cpc	r20, r24
 6b2:	ab 07       	cpc	r26, r27
 6b4:	b0 e8       	ldi	r27, 0x80	; 128
 6b6:	09 f0       	breq	.+2      	; 0x6ba <__divsf3_pse+0x56>
 6b8:	bb 0b       	sbc	r27, r27
 6ba:	80 2d       	mov	r24, r0
 6bc:	bf 01       	movw	r22, r30
 6be:	ff 27       	eor	r31, r31
 6c0:	93 58       	subi	r25, 0x83	; 131
 6c2:	5f 4f       	sbci	r21, 0xFF	; 255
 6c4:	2a f0       	brmi	.+10     	; 0x6d0 <__divsf3_pse+0x6c>
 6c6:	9e 3f       	cpi	r25, 0xFE	; 254
 6c8:	51 05       	cpc	r21, r1
 6ca:	68 f0       	brcs	.+26     	; 0x6e6 <__divsf3_pse+0x82>
 6cc:	61 c0       	rjmp	.+194    	; 0x790 <__fp_inf>
 6ce:	ab c0       	rjmp	.+342    	; 0x826 <__fp_szero>
 6d0:	5f 3f       	cpi	r21, 0xFF	; 255
 6d2:	ec f3       	brlt	.-6      	; 0x6ce <__divsf3_pse+0x6a>
 6d4:	98 3e       	cpi	r25, 0xE8	; 232
 6d6:	dc f3       	brlt	.-10     	; 0x6ce <__divsf3_pse+0x6a>
 6d8:	86 95       	lsr	r24
 6da:	77 95       	ror	r23
 6dc:	67 95       	ror	r22
 6de:	b7 95       	ror	r27
 6e0:	f7 95       	ror	r31
 6e2:	9f 5f       	subi	r25, 0xFF	; 255
 6e4:	c9 f7       	brne	.-14     	; 0x6d8 <__divsf3_pse+0x74>
 6e6:	88 0f       	add	r24, r24
 6e8:	91 1d       	adc	r25, r1
 6ea:	96 95       	lsr	r25
 6ec:	87 95       	ror	r24
 6ee:	97 f9       	bld	r25, 7
 6f0:	08 95       	ret
 6f2:	e1 e0       	ldi	r30, 0x01	; 1
 6f4:	66 0f       	add	r22, r22
 6f6:	77 1f       	adc	r23, r23
 6f8:	88 1f       	adc	r24, r24
 6fa:	bb 1f       	adc	r27, r27
 6fc:	62 17       	cp	r22, r18
 6fe:	73 07       	cpc	r23, r19
 700:	84 07       	cpc	r24, r20
 702:	ba 07       	cpc	r27, r26
 704:	20 f0       	brcs	.+8      	; 0x70e <__divsf3_pse+0xaa>
 706:	62 1b       	sub	r22, r18
 708:	73 0b       	sbc	r23, r19
 70a:	84 0b       	sbc	r24, r20
 70c:	ba 0b       	sbc	r27, r26
 70e:	ee 1f       	adc	r30, r30
 710:	88 f7       	brcc	.-30     	; 0x6f4 <__divsf3_pse+0x90>
 712:	e0 95       	com	r30
 714:	08 95       	ret

00000716 <__floatunsisf>:
 716:	e8 94       	clt
 718:	09 c0       	rjmp	.+18     	; 0x72c <__floatsisf+0x12>

0000071a <__floatsisf>:
 71a:	97 fb       	bst	r25, 7
 71c:	3e f4       	brtc	.+14     	; 0x72c <__floatsisf+0x12>
 71e:	90 95       	com	r25
 720:	80 95       	com	r24
 722:	70 95       	com	r23
 724:	61 95       	neg	r22
 726:	7f 4f       	sbci	r23, 0xFF	; 255
 728:	8f 4f       	sbci	r24, 0xFF	; 255
 72a:	9f 4f       	sbci	r25, 0xFF	; 255
 72c:	99 23       	and	r25, r25
 72e:	a9 f0       	breq	.+42     	; 0x75a <__floatsisf+0x40>
 730:	f9 2f       	mov	r31, r25
 732:	96 e9       	ldi	r25, 0x96	; 150
 734:	bb 27       	eor	r27, r27
 736:	93 95       	inc	r25
 738:	f6 95       	lsr	r31
 73a:	87 95       	ror	r24
 73c:	77 95       	ror	r23
 73e:	67 95       	ror	r22
 740:	b7 95       	ror	r27
 742:	f1 11       	cpse	r31, r1
 744:	f8 cf       	rjmp	.-16     	; 0x736 <__floatsisf+0x1c>
 746:	fa f4       	brpl	.+62     	; 0x786 <__floatsisf+0x6c>
 748:	bb 0f       	add	r27, r27
 74a:	11 f4       	brne	.+4      	; 0x750 <__floatsisf+0x36>
 74c:	60 ff       	sbrs	r22, 0
 74e:	1b c0       	rjmp	.+54     	; 0x786 <__floatsisf+0x6c>
 750:	6f 5f       	subi	r22, 0xFF	; 255
 752:	7f 4f       	sbci	r23, 0xFF	; 255
 754:	8f 4f       	sbci	r24, 0xFF	; 255
 756:	9f 4f       	sbci	r25, 0xFF	; 255
 758:	16 c0       	rjmp	.+44     	; 0x786 <__floatsisf+0x6c>
 75a:	88 23       	and	r24, r24
 75c:	11 f0       	breq	.+4      	; 0x762 <__floatsisf+0x48>
 75e:	96 e9       	ldi	r25, 0x96	; 150
 760:	11 c0       	rjmp	.+34     	; 0x784 <__floatsisf+0x6a>
 762:	77 23       	and	r23, r23
 764:	21 f0       	breq	.+8      	; 0x76e <__floatsisf+0x54>
 766:	9e e8       	ldi	r25, 0x8E	; 142
 768:	87 2f       	mov	r24, r23
 76a:	76 2f       	mov	r23, r22
 76c:	05 c0       	rjmp	.+10     	; 0x778 <__floatsisf+0x5e>
 76e:	66 23       	and	r22, r22
 770:	71 f0       	breq	.+28     	; 0x78e <__floatsisf+0x74>
 772:	96 e8       	ldi	r25, 0x86	; 134
 774:	86 2f       	mov	r24, r22
 776:	70 e0       	ldi	r23, 0x00	; 0
 778:	60 e0       	ldi	r22, 0x00	; 0
 77a:	2a f0       	brmi	.+10     	; 0x786 <__floatsisf+0x6c>
 77c:	9a 95       	dec	r25
 77e:	66 0f       	add	r22, r22
 780:	77 1f       	adc	r23, r23
 782:	88 1f       	adc	r24, r24
 784:	da f7       	brpl	.-10     	; 0x77c <__floatsisf+0x62>
 786:	88 0f       	add	r24, r24
 788:	96 95       	lsr	r25
 78a:	87 95       	ror	r24
 78c:	97 f9       	bld	r25, 7
 78e:	08 95       	ret

00000790 <__fp_inf>:
 790:	97 f9       	bld	r25, 7
 792:	9f 67       	ori	r25, 0x7F	; 127
 794:	80 e8       	ldi	r24, 0x80	; 128
 796:	70 e0       	ldi	r23, 0x00	; 0
 798:	60 e0       	ldi	r22, 0x00	; 0
 79a:	08 95       	ret

0000079c <__fp_nan>:
 79c:	9f ef       	ldi	r25, 0xFF	; 255
 79e:	80 ec       	ldi	r24, 0xC0	; 192
 7a0:	08 95       	ret

000007a2 <__fp_pscA>:
 7a2:	00 24       	eor	r0, r0
 7a4:	0a 94       	dec	r0
 7a6:	16 16       	cp	r1, r22
 7a8:	17 06       	cpc	r1, r23
 7aa:	18 06       	cpc	r1, r24
 7ac:	09 06       	cpc	r0, r25
 7ae:	08 95       	ret

000007b0 <__fp_pscB>:
 7b0:	00 24       	eor	r0, r0
 7b2:	0a 94       	dec	r0
 7b4:	12 16       	cp	r1, r18
 7b6:	13 06       	cpc	r1, r19
 7b8:	14 06       	cpc	r1, r20
 7ba:	05 06       	cpc	r0, r21
 7bc:	08 95       	ret

000007be <__fp_round>:
 7be:	09 2e       	mov	r0, r25
 7c0:	03 94       	inc	r0
 7c2:	00 0c       	add	r0, r0
 7c4:	11 f4       	brne	.+4      	; 0x7ca <__fp_round+0xc>
 7c6:	88 23       	and	r24, r24
 7c8:	52 f0       	brmi	.+20     	; 0x7de <__fp_round+0x20>
 7ca:	bb 0f       	add	r27, r27
 7cc:	40 f4       	brcc	.+16     	; 0x7de <__fp_round+0x20>
 7ce:	bf 2b       	or	r27, r31
 7d0:	11 f4       	brne	.+4      	; 0x7d6 <__fp_round+0x18>
 7d2:	60 ff       	sbrs	r22, 0
 7d4:	04 c0       	rjmp	.+8      	; 0x7de <__fp_round+0x20>
 7d6:	6f 5f       	subi	r22, 0xFF	; 255
 7d8:	7f 4f       	sbci	r23, 0xFF	; 255
 7da:	8f 4f       	sbci	r24, 0xFF	; 255
 7dc:	9f 4f       	sbci	r25, 0xFF	; 255
 7de:	08 95       	ret

000007e0 <__fp_split3>:
 7e0:	57 fd       	sbrc	r21, 7
 7e2:	90 58       	subi	r25, 0x80	; 128
 7e4:	44 0f       	add	r20, r20
 7e6:	55 1f       	adc	r21, r21
 7e8:	59 f0       	breq	.+22     	; 0x800 <__fp_splitA+0x10>
 7ea:	5f 3f       	cpi	r21, 0xFF	; 255
 7ec:	71 f0       	breq	.+28     	; 0x80a <__fp_splitA+0x1a>
 7ee:	47 95       	ror	r20

000007f0 <__fp_splitA>:
 7f0:	88 0f       	add	r24, r24
 7f2:	97 fb       	bst	r25, 7
 7f4:	99 1f       	adc	r25, r25
 7f6:	61 f0       	breq	.+24     	; 0x810 <__fp_splitA+0x20>
 7f8:	9f 3f       	cpi	r25, 0xFF	; 255
 7fa:	79 f0       	breq	.+30     	; 0x81a <__fp_splitA+0x2a>
 7fc:	87 95       	ror	r24
 7fe:	08 95       	ret
 800:	12 16       	cp	r1, r18
 802:	13 06       	cpc	r1, r19
 804:	14 06       	cpc	r1, r20
 806:	55 1f       	adc	r21, r21
 808:	f2 cf       	rjmp	.-28     	; 0x7ee <__fp_split3+0xe>
 80a:	46 95       	lsr	r20
 80c:	f1 df       	rcall	.-30     	; 0x7f0 <__fp_splitA>
 80e:	08 c0       	rjmp	.+16     	; 0x820 <__fp_splitA+0x30>
 810:	16 16       	cp	r1, r22
 812:	17 06       	cpc	r1, r23
 814:	18 06       	cpc	r1, r24
 816:	99 1f       	adc	r25, r25
 818:	f1 cf       	rjmp	.-30     	; 0x7fc <__fp_splitA+0xc>
 81a:	86 95       	lsr	r24
 81c:	71 05       	cpc	r23, r1
 81e:	61 05       	cpc	r22, r1
 820:	08 94       	sec
 822:	08 95       	ret

00000824 <__fp_zero>:
 824:	e8 94       	clt

00000826 <__fp_szero>:
 826:	bb 27       	eor	r27, r27
 828:	66 27       	eor	r22, r22
 82a:	77 27       	eor	r23, r23
 82c:	cb 01       	movw	r24, r22
 82e:	97 f9       	bld	r25, 7
 830:	08 95       	ret

00000832 <__gesf2>:
 832:	66 d0       	rcall	.+204    	; 0x900 <__fp_cmp>
 834:	08 f4       	brcc	.+2      	; 0x838 <__gesf2+0x6>
 836:	8f ef       	ldi	r24, 0xFF	; 255
 838:	08 95       	ret

0000083a <__mulsf3>:
 83a:	0b d0       	rcall	.+22     	; 0x852 <__mulsf3x>
 83c:	c0 cf       	rjmp	.-128    	; 0x7be <__fp_round>
 83e:	b1 df       	rcall	.-158    	; 0x7a2 <__fp_pscA>
 840:	28 f0       	brcs	.+10     	; 0x84c <__mulsf3+0x12>
 842:	b6 df       	rcall	.-148    	; 0x7b0 <__fp_pscB>
 844:	18 f0       	brcs	.+6      	; 0x84c <__mulsf3+0x12>
 846:	95 23       	and	r25, r21
 848:	09 f0       	breq	.+2      	; 0x84c <__mulsf3+0x12>
 84a:	a2 cf       	rjmp	.-188    	; 0x790 <__fp_inf>
 84c:	a7 cf       	rjmp	.-178    	; 0x79c <__fp_nan>
 84e:	11 24       	eor	r1, r1
 850:	ea cf       	rjmp	.-44     	; 0x826 <__fp_szero>

00000852 <__mulsf3x>:
 852:	c6 df       	rcall	.-116    	; 0x7e0 <__fp_split3>
 854:	a0 f3       	brcs	.-24     	; 0x83e <__mulsf3+0x4>

00000856 <__mulsf3_pse>:
 856:	95 9f       	mul	r25, r21
 858:	d1 f3       	breq	.-12     	; 0x84e <__mulsf3+0x14>
 85a:	95 0f       	add	r25, r21
 85c:	50 e0       	ldi	r21, 0x00	; 0
 85e:	55 1f       	adc	r21, r21
 860:	62 9f       	mul	r22, r18
 862:	f0 01       	movw	r30, r0
 864:	72 9f       	mul	r23, r18
 866:	bb 27       	eor	r27, r27
 868:	f0 0d       	add	r31, r0
 86a:	b1 1d       	adc	r27, r1
 86c:	63 9f       	mul	r22, r19
 86e:	aa 27       	eor	r26, r26
 870:	f0 0d       	add	r31, r0
 872:	b1 1d       	adc	r27, r1
 874:	aa 1f       	adc	r26, r26
 876:	64 9f       	mul	r22, r20
 878:	66 27       	eor	r22, r22
 87a:	b0 0d       	add	r27, r0
 87c:	a1 1d       	adc	r26, r1
 87e:	66 1f       	adc	r22, r22
 880:	82 9f       	mul	r24, r18
 882:	22 27       	eor	r18, r18
 884:	b0 0d       	add	r27, r0
 886:	a1 1d       	adc	r26, r1
 888:	62 1f       	adc	r22, r18
 88a:	73 9f       	mul	r23, r19
 88c:	b0 0d       	add	r27, r0
 88e:	a1 1d       	adc	r26, r1
 890:	62 1f       	adc	r22, r18
 892:	83 9f       	mul	r24, r19
 894:	a0 0d       	add	r26, r0
 896:	61 1d       	adc	r22, r1
 898:	22 1f       	adc	r18, r18
 89a:	74 9f       	mul	r23, r20
 89c:	33 27       	eor	r19, r19
 89e:	a0 0d       	add	r26, r0
 8a0:	61 1d       	adc	r22, r1
 8a2:	23 1f       	adc	r18, r19
 8a4:	84 9f       	mul	r24, r20
 8a6:	60 0d       	add	r22, r0
 8a8:	21 1d       	adc	r18, r1
 8aa:	82 2f       	mov	r24, r18
 8ac:	76 2f       	mov	r23, r22
 8ae:	6a 2f       	mov	r22, r26
 8b0:	11 24       	eor	r1, r1
 8b2:	9f 57       	subi	r25, 0x7F	; 127
 8b4:	50 40       	sbci	r21, 0x00	; 0
 8b6:	8a f0       	brmi	.+34     	; 0x8da <__mulsf3_pse+0x84>
 8b8:	e1 f0       	breq	.+56     	; 0x8f2 <__mulsf3_pse+0x9c>
 8ba:	88 23       	and	r24, r24
 8bc:	4a f0       	brmi	.+18     	; 0x8d0 <__mulsf3_pse+0x7a>
 8be:	ee 0f       	add	r30, r30
 8c0:	ff 1f       	adc	r31, r31
 8c2:	bb 1f       	adc	r27, r27
 8c4:	66 1f       	adc	r22, r22
 8c6:	77 1f       	adc	r23, r23
 8c8:	88 1f       	adc	r24, r24
 8ca:	91 50       	subi	r25, 0x01	; 1
 8cc:	50 40       	sbci	r21, 0x00	; 0
 8ce:	a9 f7       	brne	.-22     	; 0x8ba <__mulsf3_pse+0x64>
 8d0:	9e 3f       	cpi	r25, 0xFE	; 254
 8d2:	51 05       	cpc	r21, r1
 8d4:	70 f0       	brcs	.+28     	; 0x8f2 <__mulsf3_pse+0x9c>
 8d6:	5c cf       	rjmp	.-328    	; 0x790 <__fp_inf>
 8d8:	a6 cf       	rjmp	.-180    	; 0x826 <__fp_szero>
 8da:	5f 3f       	cpi	r21, 0xFF	; 255
 8dc:	ec f3       	brlt	.-6      	; 0x8d8 <__mulsf3_pse+0x82>
 8de:	98 3e       	cpi	r25, 0xE8	; 232
 8e0:	dc f3       	brlt	.-10     	; 0x8d8 <__mulsf3_pse+0x82>
 8e2:	86 95       	lsr	r24
 8e4:	77 95       	ror	r23
 8e6:	67 95       	ror	r22
 8e8:	b7 95       	ror	r27
 8ea:	f7 95       	ror	r31
 8ec:	e7 95       	ror	r30
 8ee:	9f 5f       	subi	r25, 0xFF	; 255
 8f0:	c1 f7       	brne	.-16     	; 0x8e2 <__mulsf3_pse+0x8c>
 8f2:	fe 2b       	or	r31, r30
 8f4:	88 0f       	add	r24, r24
 8f6:	91 1d       	adc	r25, r1
 8f8:	96 95       	lsr	r25
 8fa:	87 95       	ror	r24
 8fc:	97 f9       	bld	r25, 7
 8fe:	08 95       	ret

00000900 <__fp_cmp>:
 900:	99 0f       	add	r25, r25
 902:	00 08       	sbc	r0, r0
 904:	55 0f       	add	r21, r21
 906:	aa 0b       	sbc	r26, r26
 908:	e0 e8       	ldi	r30, 0x80	; 128
 90a:	fe ef       	ldi	r31, 0xFE	; 254
 90c:	16 16       	cp	r1, r22
 90e:	17 06       	cpc	r1, r23
 910:	e8 07       	cpc	r30, r24
 912:	f9 07       	cpc	r31, r25
 914:	c0 f0       	brcs	.+48     	; 0x946 <__fp_cmp+0x46>
 916:	12 16       	cp	r1, r18
 918:	13 06       	cpc	r1, r19
 91a:	e4 07       	cpc	r30, r20
 91c:	f5 07       	cpc	r31, r21
 91e:	98 f0       	brcs	.+38     	; 0x946 <__fp_cmp+0x46>
 920:	62 1b       	sub	r22, r18
 922:	73 0b       	sbc	r23, r19
 924:	84 0b       	sbc	r24, r20
 926:	95 0b       	sbc	r25, r21
 928:	39 f4       	brne	.+14     	; 0x938 <__fp_cmp+0x38>
 92a:	0a 26       	eor	r0, r26
 92c:	61 f0       	breq	.+24     	; 0x946 <__fp_cmp+0x46>
 92e:	23 2b       	or	r18, r19
 930:	24 2b       	or	r18, r20
 932:	25 2b       	or	r18, r21
 934:	21 f4       	brne	.+8      	; 0x93e <__fp_cmp+0x3e>
 936:	08 95       	ret
 938:	0a 26       	eor	r0, r26
 93a:	09 f4       	brne	.+2      	; 0x93e <__fp_cmp+0x3e>
 93c:	a1 40       	sbci	r26, 0x01	; 1
 93e:	a6 95       	lsr	r26
 940:	8f ef       	ldi	r24, 0xFF	; 255
 942:	81 1d       	adc	r24, r1
 944:	81 1d       	adc	r24, r1
 946:	08 95       	ret

00000948 <strcmp>:
 948:	fb 01       	movw	r30, r22
 94a:	dc 01       	movw	r26, r24
 94c:	8d 91       	ld	r24, X+
 94e:	01 90       	ld	r0, Z+
 950:	80 19       	sub	r24, r0
 952:	01 10       	cpse	r0, r1
 954:	d9 f3       	breq	.-10     	; 0x94c <strcmp+0x4>
 956:	99 0b       	sbc	r25, r25
 958:	08 95       	ret

0000095a <sprintf>:
 95a:	0f 93       	push	r16
 95c:	1f 93       	push	r17
 95e:	cf 93       	push	r28
 960:	df 93       	push	r29
 962:	cd b7       	in	r28, 0x3d	; 61
 964:	de b7       	in	r29, 0x3e	; 62
 966:	2e 97       	sbiw	r28, 0x0e	; 14
 968:	0f b6       	in	r0, 0x3f	; 63
 96a:	f8 94       	cli
 96c:	de bf       	out	0x3e, r29	; 62
 96e:	0f be       	out	0x3f, r0	; 63
 970:	cd bf       	out	0x3d, r28	; 61
 972:	0d 89       	ldd	r16, Y+21	; 0x15
 974:	1e 89       	ldd	r17, Y+22	; 0x16
 976:	86 e0       	ldi	r24, 0x06	; 6
 978:	8c 83       	std	Y+4, r24	; 0x04
 97a:	1a 83       	std	Y+2, r17	; 0x02
 97c:	09 83       	std	Y+1, r16	; 0x01
 97e:	8f ef       	ldi	r24, 0xFF	; 255
 980:	9f e7       	ldi	r25, 0x7F	; 127
 982:	9e 83       	std	Y+6, r25	; 0x06
 984:	8d 83       	std	Y+5, r24	; 0x05
 986:	ae 01       	movw	r20, r28
 988:	47 5e       	subi	r20, 0xE7	; 231
 98a:	5f 4f       	sbci	r21, 0xFF	; 255
 98c:	6f 89       	ldd	r22, Y+23	; 0x17
 98e:	78 8d       	ldd	r23, Y+24	; 0x18
 990:	ce 01       	movw	r24, r28
 992:	01 96       	adiw	r24, 0x01	; 1
 994:	10 d0       	rcall	.+32     	; 0x9b6 <vfprintf>
 996:	ef 81       	ldd	r30, Y+7	; 0x07
 998:	f8 85       	ldd	r31, Y+8	; 0x08
 99a:	e0 0f       	add	r30, r16
 99c:	f1 1f       	adc	r31, r17
 99e:	10 82       	st	Z, r1
 9a0:	2e 96       	adiw	r28, 0x0e	; 14
 9a2:	0f b6       	in	r0, 0x3f	; 63
 9a4:	f8 94       	cli
 9a6:	de bf       	out	0x3e, r29	; 62
 9a8:	0f be       	out	0x3f, r0	; 63
 9aa:	cd bf       	out	0x3d, r28	; 61
 9ac:	df 91       	pop	r29
 9ae:	cf 91       	pop	r28
 9b0:	1f 91       	pop	r17
 9b2:	0f 91       	pop	r16
 9b4:	08 95       	ret

000009b6 <vfprintf>:
 9b6:	2f 92       	push	r2
 9b8:	3f 92       	push	r3
 9ba:	4f 92       	push	r4
 9bc:	5f 92       	push	r5
 9be:	6f 92       	push	r6
 9c0:	7f 92       	push	r7
 9c2:	8f 92       	push	r8
 9c4:	9f 92       	push	r9
 9c6:	af 92       	push	r10
 9c8:	bf 92       	push	r11
 9ca:	cf 92       	push	r12
 9cc:	df 92       	push	r13
 9ce:	ef 92       	push	r14
 9d0:	ff 92       	push	r15
 9d2:	0f 93       	push	r16
 9d4:	1f 93       	push	r17
 9d6:	cf 93       	push	r28
 9d8:	df 93       	push	r29
 9da:	cd b7       	in	r28, 0x3d	; 61
 9dc:	de b7       	in	r29, 0x3e	; 62
 9de:	2b 97       	sbiw	r28, 0x0b	; 11
 9e0:	0f b6       	in	r0, 0x3f	; 63
 9e2:	f8 94       	cli
 9e4:	de bf       	out	0x3e, r29	; 62
 9e6:	0f be       	out	0x3f, r0	; 63
 9e8:	cd bf       	out	0x3d, r28	; 61
 9ea:	6c 01       	movw	r12, r24
 9ec:	7b 01       	movw	r14, r22
 9ee:	8a 01       	movw	r16, r20
 9f0:	fc 01       	movw	r30, r24
 9f2:	17 82       	std	Z+7, r1	; 0x07
 9f4:	16 82       	std	Z+6, r1	; 0x06
 9f6:	83 81       	ldd	r24, Z+3	; 0x03
 9f8:	81 ff       	sbrs	r24, 1
 9fa:	bf c1       	rjmp	.+894    	; 0xd7a <vfprintf+0x3c4>
 9fc:	ce 01       	movw	r24, r28
 9fe:	01 96       	adiw	r24, 0x01	; 1
 a00:	3c 01       	movw	r6, r24
 a02:	f6 01       	movw	r30, r12
 a04:	93 81       	ldd	r25, Z+3	; 0x03
 a06:	f7 01       	movw	r30, r14
 a08:	93 fd       	sbrc	r25, 3
 a0a:	85 91       	lpm	r24, Z+
 a0c:	93 ff       	sbrs	r25, 3
 a0e:	81 91       	ld	r24, Z+
 a10:	7f 01       	movw	r14, r30
 a12:	88 23       	and	r24, r24
 a14:	09 f4       	brne	.+2      	; 0xa18 <vfprintf+0x62>
 a16:	ad c1       	rjmp	.+858    	; 0xd72 <vfprintf+0x3bc>
 a18:	85 32       	cpi	r24, 0x25	; 37
 a1a:	39 f4       	brne	.+14     	; 0xa2a <vfprintf+0x74>
 a1c:	93 fd       	sbrc	r25, 3
 a1e:	85 91       	lpm	r24, Z+
 a20:	93 ff       	sbrs	r25, 3
 a22:	81 91       	ld	r24, Z+
 a24:	7f 01       	movw	r14, r30
 a26:	85 32       	cpi	r24, 0x25	; 37
 a28:	21 f4       	brne	.+8      	; 0xa32 <vfprintf+0x7c>
 a2a:	b6 01       	movw	r22, r12
 a2c:	90 e0       	ldi	r25, 0x00	; 0
 a2e:	d6 d1       	rcall	.+940    	; 0xddc <fputc>
 a30:	e8 cf       	rjmp	.-48     	; 0xa02 <vfprintf+0x4c>
 a32:	91 2c       	mov	r9, r1
 a34:	21 2c       	mov	r2, r1
 a36:	31 2c       	mov	r3, r1
 a38:	ff e1       	ldi	r31, 0x1F	; 31
 a3a:	f3 15       	cp	r31, r3
 a3c:	d8 f0       	brcs	.+54     	; 0xa74 <vfprintf+0xbe>
 a3e:	8b 32       	cpi	r24, 0x2B	; 43
 a40:	79 f0       	breq	.+30     	; 0xa60 <vfprintf+0xaa>
 a42:	38 f4       	brcc	.+14     	; 0xa52 <vfprintf+0x9c>
 a44:	80 32       	cpi	r24, 0x20	; 32
 a46:	79 f0       	breq	.+30     	; 0xa66 <vfprintf+0xb0>
 a48:	83 32       	cpi	r24, 0x23	; 35
 a4a:	a1 f4       	brne	.+40     	; 0xa74 <vfprintf+0xbe>
 a4c:	23 2d       	mov	r18, r3
 a4e:	20 61       	ori	r18, 0x10	; 16
 a50:	1d c0       	rjmp	.+58     	; 0xa8c <vfprintf+0xd6>
 a52:	8d 32       	cpi	r24, 0x2D	; 45
 a54:	61 f0       	breq	.+24     	; 0xa6e <vfprintf+0xb8>
 a56:	80 33       	cpi	r24, 0x30	; 48
 a58:	69 f4       	brne	.+26     	; 0xa74 <vfprintf+0xbe>
 a5a:	23 2d       	mov	r18, r3
 a5c:	21 60       	ori	r18, 0x01	; 1
 a5e:	16 c0       	rjmp	.+44     	; 0xa8c <vfprintf+0xd6>
 a60:	83 2d       	mov	r24, r3
 a62:	82 60       	ori	r24, 0x02	; 2
 a64:	38 2e       	mov	r3, r24
 a66:	e3 2d       	mov	r30, r3
 a68:	e4 60       	ori	r30, 0x04	; 4
 a6a:	3e 2e       	mov	r3, r30
 a6c:	2a c0       	rjmp	.+84     	; 0xac2 <vfprintf+0x10c>
 a6e:	f3 2d       	mov	r31, r3
 a70:	f8 60       	ori	r31, 0x08	; 8
 a72:	1d c0       	rjmp	.+58     	; 0xaae <vfprintf+0xf8>
 a74:	37 fc       	sbrc	r3, 7
 a76:	2d c0       	rjmp	.+90     	; 0xad2 <vfprintf+0x11c>
 a78:	20 ed       	ldi	r18, 0xD0	; 208
 a7a:	28 0f       	add	r18, r24
 a7c:	2a 30       	cpi	r18, 0x0A	; 10
 a7e:	40 f0       	brcs	.+16     	; 0xa90 <vfprintf+0xda>
 a80:	8e 32       	cpi	r24, 0x2E	; 46
 a82:	b9 f4       	brne	.+46     	; 0xab2 <vfprintf+0xfc>
 a84:	36 fc       	sbrc	r3, 6
 a86:	75 c1       	rjmp	.+746    	; 0xd72 <vfprintf+0x3bc>
 a88:	23 2d       	mov	r18, r3
 a8a:	20 64       	ori	r18, 0x40	; 64
 a8c:	32 2e       	mov	r3, r18
 a8e:	19 c0       	rjmp	.+50     	; 0xac2 <vfprintf+0x10c>
 a90:	36 fe       	sbrs	r3, 6
 a92:	06 c0       	rjmp	.+12     	; 0xaa0 <vfprintf+0xea>
 a94:	8a e0       	ldi	r24, 0x0A	; 10
 a96:	98 9e       	mul	r9, r24
 a98:	20 0d       	add	r18, r0
 a9a:	11 24       	eor	r1, r1
 a9c:	92 2e       	mov	r9, r18
 a9e:	11 c0       	rjmp	.+34     	; 0xac2 <vfprintf+0x10c>
 aa0:	ea e0       	ldi	r30, 0x0A	; 10
 aa2:	2e 9e       	mul	r2, r30
 aa4:	20 0d       	add	r18, r0
 aa6:	11 24       	eor	r1, r1
 aa8:	22 2e       	mov	r2, r18
 aaa:	f3 2d       	mov	r31, r3
 aac:	f0 62       	ori	r31, 0x20	; 32
 aae:	3f 2e       	mov	r3, r31
 ab0:	08 c0       	rjmp	.+16     	; 0xac2 <vfprintf+0x10c>
 ab2:	8c 36       	cpi	r24, 0x6C	; 108
 ab4:	21 f4       	brne	.+8      	; 0xabe <vfprintf+0x108>
 ab6:	83 2d       	mov	r24, r3
 ab8:	80 68       	ori	r24, 0x80	; 128
 aba:	38 2e       	mov	r3, r24
 abc:	02 c0       	rjmp	.+4      	; 0xac2 <vfprintf+0x10c>
 abe:	88 36       	cpi	r24, 0x68	; 104
 ac0:	41 f4       	brne	.+16     	; 0xad2 <vfprintf+0x11c>
 ac2:	f7 01       	movw	r30, r14
 ac4:	93 fd       	sbrc	r25, 3
 ac6:	85 91       	lpm	r24, Z+
 ac8:	93 ff       	sbrs	r25, 3
 aca:	81 91       	ld	r24, Z+
 acc:	7f 01       	movw	r14, r30
 ace:	81 11       	cpse	r24, r1
 ad0:	b3 cf       	rjmp	.-154    	; 0xa38 <vfprintf+0x82>
 ad2:	98 2f       	mov	r25, r24
 ad4:	9f 7d       	andi	r25, 0xDF	; 223
 ad6:	95 54       	subi	r25, 0x45	; 69
 ad8:	93 30       	cpi	r25, 0x03	; 3
 ada:	28 f4       	brcc	.+10     	; 0xae6 <vfprintf+0x130>
 adc:	0c 5f       	subi	r16, 0xFC	; 252
 ade:	1f 4f       	sbci	r17, 0xFF	; 255
 ae0:	9f e3       	ldi	r25, 0x3F	; 63
 ae2:	99 83       	std	Y+1, r25	; 0x01
 ae4:	0d c0       	rjmp	.+26     	; 0xb00 <vfprintf+0x14a>
 ae6:	83 36       	cpi	r24, 0x63	; 99
 ae8:	31 f0       	breq	.+12     	; 0xaf6 <vfprintf+0x140>
 aea:	83 37       	cpi	r24, 0x73	; 115
 aec:	71 f0       	breq	.+28     	; 0xb0a <vfprintf+0x154>
 aee:	83 35       	cpi	r24, 0x53	; 83
 af0:	09 f0       	breq	.+2      	; 0xaf4 <vfprintf+0x13e>
 af2:	55 c0       	rjmp	.+170    	; 0xb9e <vfprintf+0x1e8>
 af4:	20 c0       	rjmp	.+64     	; 0xb36 <vfprintf+0x180>
 af6:	f8 01       	movw	r30, r16
 af8:	80 81       	ld	r24, Z
 afa:	89 83       	std	Y+1, r24	; 0x01
 afc:	0e 5f       	subi	r16, 0xFE	; 254
 afe:	1f 4f       	sbci	r17, 0xFF	; 255
 b00:	88 24       	eor	r8, r8
 b02:	83 94       	inc	r8
 b04:	91 2c       	mov	r9, r1
 b06:	53 01       	movw	r10, r6
 b08:	12 c0       	rjmp	.+36     	; 0xb2e <vfprintf+0x178>
 b0a:	28 01       	movw	r4, r16
 b0c:	f2 e0       	ldi	r31, 0x02	; 2
 b0e:	4f 0e       	add	r4, r31
 b10:	51 1c       	adc	r5, r1
 b12:	f8 01       	movw	r30, r16
 b14:	a0 80       	ld	r10, Z
 b16:	b1 80       	ldd	r11, Z+1	; 0x01
 b18:	36 fe       	sbrs	r3, 6
 b1a:	03 c0       	rjmp	.+6      	; 0xb22 <vfprintf+0x16c>
 b1c:	69 2d       	mov	r22, r9
 b1e:	70 e0       	ldi	r23, 0x00	; 0
 b20:	02 c0       	rjmp	.+4      	; 0xb26 <vfprintf+0x170>
 b22:	6f ef       	ldi	r22, 0xFF	; 255
 b24:	7f ef       	ldi	r23, 0xFF	; 255
 b26:	c5 01       	movw	r24, r10
 b28:	4e d1       	rcall	.+668    	; 0xdc6 <strnlen>
 b2a:	4c 01       	movw	r8, r24
 b2c:	82 01       	movw	r16, r4
 b2e:	f3 2d       	mov	r31, r3
 b30:	ff 77       	andi	r31, 0x7F	; 127
 b32:	3f 2e       	mov	r3, r31
 b34:	15 c0       	rjmp	.+42     	; 0xb60 <vfprintf+0x1aa>
 b36:	28 01       	movw	r4, r16
 b38:	22 e0       	ldi	r18, 0x02	; 2
 b3a:	42 0e       	add	r4, r18
 b3c:	51 1c       	adc	r5, r1
 b3e:	f8 01       	movw	r30, r16
 b40:	a0 80       	ld	r10, Z
 b42:	b1 80       	ldd	r11, Z+1	; 0x01
 b44:	36 fe       	sbrs	r3, 6
 b46:	03 c0       	rjmp	.+6      	; 0xb4e <vfprintf+0x198>
 b48:	69 2d       	mov	r22, r9
 b4a:	70 e0       	ldi	r23, 0x00	; 0
 b4c:	02 c0       	rjmp	.+4      	; 0xb52 <vfprintf+0x19c>
 b4e:	6f ef       	ldi	r22, 0xFF	; 255
 b50:	7f ef       	ldi	r23, 0xFF	; 255
 b52:	c5 01       	movw	r24, r10
 b54:	2d d1       	rcall	.+602    	; 0xdb0 <strnlen_P>
 b56:	4c 01       	movw	r8, r24
 b58:	f3 2d       	mov	r31, r3
 b5a:	f0 68       	ori	r31, 0x80	; 128
 b5c:	3f 2e       	mov	r3, r31
 b5e:	82 01       	movw	r16, r4
 b60:	33 fc       	sbrc	r3, 3
 b62:	19 c0       	rjmp	.+50     	; 0xb96 <vfprintf+0x1e0>
 b64:	82 2d       	mov	r24, r2
 b66:	90 e0       	ldi	r25, 0x00	; 0
 b68:	88 16       	cp	r8, r24
 b6a:	99 06       	cpc	r9, r25
 b6c:	a0 f4       	brcc	.+40     	; 0xb96 <vfprintf+0x1e0>
 b6e:	b6 01       	movw	r22, r12
 b70:	80 e2       	ldi	r24, 0x20	; 32
 b72:	90 e0       	ldi	r25, 0x00	; 0
 b74:	33 d1       	rcall	.+614    	; 0xddc <fputc>
 b76:	2a 94       	dec	r2
 b78:	f5 cf       	rjmp	.-22     	; 0xb64 <vfprintf+0x1ae>
 b7a:	f5 01       	movw	r30, r10
 b7c:	37 fc       	sbrc	r3, 7
 b7e:	85 91       	lpm	r24, Z+
 b80:	37 fe       	sbrs	r3, 7
 b82:	81 91       	ld	r24, Z+
 b84:	5f 01       	movw	r10, r30
 b86:	b6 01       	movw	r22, r12
 b88:	90 e0       	ldi	r25, 0x00	; 0
 b8a:	28 d1       	rcall	.+592    	; 0xddc <fputc>
 b8c:	21 10       	cpse	r2, r1
 b8e:	2a 94       	dec	r2
 b90:	21 e0       	ldi	r18, 0x01	; 1
 b92:	82 1a       	sub	r8, r18
 b94:	91 08       	sbc	r9, r1
 b96:	81 14       	cp	r8, r1
 b98:	91 04       	cpc	r9, r1
 b9a:	79 f7       	brne	.-34     	; 0xb7a <vfprintf+0x1c4>
 b9c:	e1 c0       	rjmp	.+450    	; 0xd60 <vfprintf+0x3aa>
 b9e:	84 36       	cpi	r24, 0x64	; 100
 ba0:	11 f0       	breq	.+4      	; 0xba6 <vfprintf+0x1f0>
 ba2:	89 36       	cpi	r24, 0x69	; 105
 ba4:	39 f5       	brne	.+78     	; 0xbf4 <vfprintf+0x23e>
 ba6:	f8 01       	movw	r30, r16
 ba8:	37 fe       	sbrs	r3, 7
 baa:	07 c0       	rjmp	.+14     	; 0xbba <vfprintf+0x204>
 bac:	60 81       	ld	r22, Z
 bae:	71 81       	ldd	r23, Z+1	; 0x01
 bb0:	82 81       	ldd	r24, Z+2	; 0x02
 bb2:	93 81       	ldd	r25, Z+3	; 0x03
 bb4:	0c 5f       	subi	r16, 0xFC	; 252
 bb6:	1f 4f       	sbci	r17, 0xFF	; 255
 bb8:	08 c0       	rjmp	.+16     	; 0xbca <vfprintf+0x214>
 bba:	60 81       	ld	r22, Z
 bbc:	71 81       	ldd	r23, Z+1	; 0x01
 bbe:	07 2e       	mov	r0, r23
 bc0:	00 0c       	add	r0, r0
 bc2:	88 0b       	sbc	r24, r24
 bc4:	99 0b       	sbc	r25, r25
 bc6:	0e 5f       	subi	r16, 0xFE	; 254
 bc8:	1f 4f       	sbci	r17, 0xFF	; 255
 bca:	f3 2d       	mov	r31, r3
 bcc:	ff 76       	andi	r31, 0x6F	; 111
 bce:	3f 2e       	mov	r3, r31
 bd0:	97 ff       	sbrs	r25, 7
 bd2:	09 c0       	rjmp	.+18     	; 0xbe6 <vfprintf+0x230>
 bd4:	90 95       	com	r25
 bd6:	80 95       	com	r24
 bd8:	70 95       	com	r23
 bda:	61 95       	neg	r22
 bdc:	7f 4f       	sbci	r23, 0xFF	; 255
 bde:	8f 4f       	sbci	r24, 0xFF	; 255
 be0:	9f 4f       	sbci	r25, 0xFF	; 255
 be2:	f0 68       	ori	r31, 0x80	; 128
 be4:	3f 2e       	mov	r3, r31
 be6:	2a e0       	ldi	r18, 0x0A	; 10
 be8:	30 e0       	ldi	r19, 0x00	; 0
 bea:	a3 01       	movw	r20, r6
 bec:	33 d1       	rcall	.+614    	; 0xe54 <__ultoa_invert>
 bee:	88 2e       	mov	r8, r24
 bf0:	86 18       	sub	r8, r6
 bf2:	44 c0       	rjmp	.+136    	; 0xc7c <vfprintf+0x2c6>
 bf4:	85 37       	cpi	r24, 0x75	; 117
 bf6:	31 f4       	brne	.+12     	; 0xc04 <vfprintf+0x24e>
 bf8:	23 2d       	mov	r18, r3
 bfa:	2f 7e       	andi	r18, 0xEF	; 239
 bfc:	b2 2e       	mov	r11, r18
 bfe:	2a e0       	ldi	r18, 0x0A	; 10
 c00:	30 e0       	ldi	r19, 0x00	; 0
 c02:	25 c0       	rjmp	.+74     	; 0xc4e <vfprintf+0x298>
 c04:	93 2d       	mov	r25, r3
 c06:	99 7f       	andi	r25, 0xF9	; 249
 c08:	b9 2e       	mov	r11, r25
 c0a:	8f 36       	cpi	r24, 0x6F	; 111
 c0c:	c1 f0       	breq	.+48     	; 0xc3e <vfprintf+0x288>
 c0e:	18 f4       	brcc	.+6      	; 0xc16 <vfprintf+0x260>
 c10:	88 35       	cpi	r24, 0x58	; 88
 c12:	79 f0       	breq	.+30     	; 0xc32 <vfprintf+0x27c>
 c14:	ae c0       	rjmp	.+348    	; 0xd72 <vfprintf+0x3bc>
 c16:	80 37       	cpi	r24, 0x70	; 112
 c18:	19 f0       	breq	.+6      	; 0xc20 <vfprintf+0x26a>
 c1a:	88 37       	cpi	r24, 0x78	; 120
 c1c:	21 f0       	breq	.+8      	; 0xc26 <vfprintf+0x270>
 c1e:	a9 c0       	rjmp	.+338    	; 0xd72 <vfprintf+0x3bc>
 c20:	e9 2f       	mov	r30, r25
 c22:	e0 61       	ori	r30, 0x10	; 16
 c24:	be 2e       	mov	r11, r30
 c26:	b4 fe       	sbrs	r11, 4
 c28:	0d c0       	rjmp	.+26     	; 0xc44 <vfprintf+0x28e>
 c2a:	fb 2d       	mov	r31, r11
 c2c:	f4 60       	ori	r31, 0x04	; 4
 c2e:	bf 2e       	mov	r11, r31
 c30:	09 c0       	rjmp	.+18     	; 0xc44 <vfprintf+0x28e>
 c32:	34 fe       	sbrs	r3, 4
 c34:	0a c0       	rjmp	.+20     	; 0xc4a <vfprintf+0x294>
 c36:	29 2f       	mov	r18, r25
 c38:	26 60       	ori	r18, 0x06	; 6
 c3a:	b2 2e       	mov	r11, r18
 c3c:	06 c0       	rjmp	.+12     	; 0xc4a <vfprintf+0x294>
 c3e:	28 e0       	ldi	r18, 0x08	; 8
 c40:	30 e0       	ldi	r19, 0x00	; 0
 c42:	05 c0       	rjmp	.+10     	; 0xc4e <vfprintf+0x298>
 c44:	20 e1       	ldi	r18, 0x10	; 16
 c46:	30 e0       	ldi	r19, 0x00	; 0
 c48:	02 c0       	rjmp	.+4      	; 0xc4e <vfprintf+0x298>
 c4a:	20 e1       	ldi	r18, 0x10	; 16
 c4c:	32 e0       	ldi	r19, 0x02	; 2
 c4e:	f8 01       	movw	r30, r16
 c50:	b7 fe       	sbrs	r11, 7
 c52:	07 c0       	rjmp	.+14     	; 0xc62 <vfprintf+0x2ac>
 c54:	60 81       	ld	r22, Z
 c56:	71 81       	ldd	r23, Z+1	; 0x01
 c58:	82 81       	ldd	r24, Z+2	; 0x02
 c5a:	93 81       	ldd	r25, Z+3	; 0x03
 c5c:	0c 5f       	subi	r16, 0xFC	; 252
 c5e:	1f 4f       	sbci	r17, 0xFF	; 255
 c60:	06 c0       	rjmp	.+12     	; 0xc6e <vfprintf+0x2b8>
 c62:	60 81       	ld	r22, Z
 c64:	71 81       	ldd	r23, Z+1	; 0x01
 c66:	80 e0       	ldi	r24, 0x00	; 0
 c68:	90 e0       	ldi	r25, 0x00	; 0
 c6a:	0e 5f       	subi	r16, 0xFE	; 254
 c6c:	1f 4f       	sbci	r17, 0xFF	; 255
 c6e:	a3 01       	movw	r20, r6
 c70:	f1 d0       	rcall	.+482    	; 0xe54 <__ultoa_invert>
 c72:	88 2e       	mov	r8, r24
 c74:	86 18       	sub	r8, r6
 c76:	fb 2d       	mov	r31, r11
 c78:	ff 77       	andi	r31, 0x7F	; 127
 c7a:	3f 2e       	mov	r3, r31
 c7c:	36 fe       	sbrs	r3, 6
 c7e:	0d c0       	rjmp	.+26     	; 0xc9a <vfprintf+0x2e4>
 c80:	23 2d       	mov	r18, r3
 c82:	2e 7f       	andi	r18, 0xFE	; 254
 c84:	a2 2e       	mov	r10, r18
 c86:	89 14       	cp	r8, r9
 c88:	58 f4       	brcc	.+22     	; 0xca0 <vfprintf+0x2ea>
 c8a:	34 fe       	sbrs	r3, 4
 c8c:	0b c0       	rjmp	.+22     	; 0xca4 <vfprintf+0x2ee>
 c8e:	32 fc       	sbrc	r3, 2
 c90:	09 c0       	rjmp	.+18     	; 0xca4 <vfprintf+0x2ee>
 c92:	83 2d       	mov	r24, r3
 c94:	8e 7e       	andi	r24, 0xEE	; 238
 c96:	a8 2e       	mov	r10, r24
 c98:	05 c0       	rjmp	.+10     	; 0xca4 <vfprintf+0x2ee>
 c9a:	b8 2c       	mov	r11, r8
 c9c:	a3 2c       	mov	r10, r3
 c9e:	03 c0       	rjmp	.+6      	; 0xca6 <vfprintf+0x2f0>
 ca0:	b8 2c       	mov	r11, r8
 ca2:	01 c0       	rjmp	.+2      	; 0xca6 <vfprintf+0x2f0>
 ca4:	b9 2c       	mov	r11, r9
 ca6:	a4 fe       	sbrs	r10, 4
 ca8:	0f c0       	rjmp	.+30     	; 0xcc8 <vfprintf+0x312>
 caa:	fe 01       	movw	r30, r28
 cac:	e8 0d       	add	r30, r8
 cae:	f1 1d       	adc	r31, r1
 cb0:	80 81       	ld	r24, Z
 cb2:	80 33       	cpi	r24, 0x30	; 48
 cb4:	21 f4       	brne	.+8      	; 0xcbe <vfprintf+0x308>
 cb6:	9a 2d       	mov	r25, r10
 cb8:	99 7e       	andi	r25, 0xE9	; 233
 cba:	a9 2e       	mov	r10, r25
 cbc:	09 c0       	rjmp	.+18     	; 0xcd0 <vfprintf+0x31a>
 cbe:	a2 fe       	sbrs	r10, 2
 cc0:	06 c0       	rjmp	.+12     	; 0xcce <vfprintf+0x318>
 cc2:	b3 94       	inc	r11
 cc4:	b3 94       	inc	r11
 cc6:	04 c0       	rjmp	.+8      	; 0xcd0 <vfprintf+0x31a>
 cc8:	8a 2d       	mov	r24, r10
 cca:	86 78       	andi	r24, 0x86	; 134
 ccc:	09 f0       	breq	.+2      	; 0xcd0 <vfprintf+0x31a>
 cce:	b3 94       	inc	r11
 cd0:	a3 fc       	sbrc	r10, 3
 cd2:	10 c0       	rjmp	.+32     	; 0xcf4 <vfprintf+0x33e>
 cd4:	a0 fe       	sbrs	r10, 0
 cd6:	06 c0       	rjmp	.+12     	; 0xce4 <vfprintf+0x32e>
 cd8:	b2 14       	cp	r11, r2
 cda:	80 f4       	brcc	.+32     	; 0xcfc <vfprintf+0x346>
 cdc:	28 0c       	add	r2, r8
 cde:	92 2c       	mov	r9, r2
 ce0:	9b 18       	sub	r9, r11
 ce2:	0d c0       	rjmp	.+26     	; 0xcfe <vfprintf+0x348>
 ce4:	b2 14       	cp	r11, r2
 ce6:	58 f4       	brcc	.+22     	; 0xcfe <vfprintf+0x348>
 ce8:	b6 01       	movw	r22, r12
 cea:	80 e2       	ldi	r24, 0x20	; 32
 cec:	90 e0       	ldi	r25, 0x00	; 0
 cee:	76 d0       	rcall	.+236    	; 0xddc <fputc>
 cf0:	b3 94       	inc	r11
 cf2:	f8 cf       	rjmp	.-16     	; 0xce4 <vfprintf+0x32e>
 cf4:	b2 14       	cp	r11, r2
 cf6:	18 f4       	brcc	.+6      	; 0xcfe <vfprintf+0x348>
 cf8:	2b 18       	sub	r2, r11
 cfa:	02 c0       	rjmp	.+4      	; 0xd00 <vfprintf+0x34a>
 cfc:	98 2c       	mov	r9, r8
 cfe:	21 2c       	mov	r2, r1
 d00:	a4 fe       	sbrs	r10, 4
 d02:	0f c0       	rjmp	.+30     	; 0xd22 <vfprintf+0x36c>
 d04:	b6 01       	movw	r22, r12
 d06:	80 e3       	ldi	r24, 0x30	; 48
 d08:	90 e0       	ldi	r25, 0x00	; 0
 d0a:	68 d0       	rcall	.+208    	; 0xddc <fputc>
 d0c:	a2 fe       	sbrs	r10, 2
 d0e:	16 c0       	rjmp	.+44     	; 0xd3c <vfprintf+0x386>
 d10:	a1 fc       	sbrc	r10, 1
 d12:	03 c0       	rjmp	.+6      	; 0xd1a <vfprintf+0x364>
 d14:	88 e7       	ldi	r24, 0x78	; 120
 d16:	90 e0       	ldi	r25, 0x00	; 0
 d18:	02 c0       	rjmp	.+4      	; 0xd1e <vfprintf+0x368>
 d1a:	88 e5       	ldi	r24, 0x58	; 88
 d1c:	90 e0       	ldi	r25, 0x00	; 0
 d1e:	b6 01       	movw	r22, r12
 d20:	0c c0       	rjmp	.+24     	; 0xd3a <vfprintf+0x384>
 d22:	8a 2d       	mov	r24, r10
 d24:	86 78       	andi	r24, 0x86	; 134
 d26:	51 f0       	breq	.+20     	; 0xd3c <vfprintf+0x386>
 d28:	a1 fe       	sbrs	r10, 1
 d2a:	02 c0       	rjmp	.+4      	; 0xd30 <vfprintf+0x37a>
 d2c:	8b e2       	ldi	r24, 0x2B	; 43
 d2e:	01 c0       	rjmp	.+2      	; 0xd32 <vfprintf+0x37c>
 d30:	80 e2       	ldi	r24, 0x20	; 32
 d32:	a7 fc       	sbrc	r10, 7
 d34:	8d e2       	ldi	r24, 0x2D	; 45
 d36:	b6 01       	movw	r22, r12
 d38:	90 e0       	ldi	r25, 0x00	; 0
 d3a:	50 d0       	rcall	.+160    	; 0xddc <fputc>
 d3c:	89 14       	cp	r8, r9
 d3e:	30 f4       	brcc	.+12     	; 0xd4c <vfprintf+0x396>
 d40:	b6 01       	movw	r22, r12
 d42:	80 e3       	ldi	r24, 0x30	; 48
 d44:	90 e0       	ldi	r25, 0x00	; 0
 d46:	4a d0       	rcall	.+148    	; 0xddc <fputc>
 d48:	9a 94       	dec	r9
 d4a:	f8 cf       	rjmp	.-16     	; 0xd3c <vfprintf+0x386>
 d4c:	8a 94       	dec	r8
 d4e:	f3 01       	movw	r30, r6
 d50:	e8 0d       	add	r30, r8
 d52:	f1 1d       	adc	r31, r1
 d54:	80 81       	ld	r24, Z
 d56:	b6 01       	movw	r22, r12
 d58:	90 e0       	ldi	r25, 0x00	; 0
 d5a:	40 d0       	rcall	.+128    	; 0xddc <fputc>
 d5c:	81 10       	cpse	r8, r1
 d5e:	f6 cf       	rjmp	.-20     	; 0xd4c <vfprintf+0x396>
 d60:	22 20       	and	r2, r2
 d62:	09 f4       	brne	.+2      	; 0xd66 <vfprintf+0x3b0>
 d64:	4e ce       	rjmp	.-868    	; 0xa02 <vfprintf+0x4c>
 d66:	b6 01       	movw	r22, r12
 d68:	80 e2       	ldi	r24, 0x20	; 32
 d6a:	90 e0       	ldi	r25, 0x00	; 0
 d6c:	37 d0       	rcall	.+110    	; 0xddc <fputc>
 d6e:	2a 94       	dec	r2
 d70:	f7 cf       	rjmp	.-18     	; 0xd60 <vfprintf+0x3aa>
 d72:	f6 01       	movw	r30, r12
 d74:	86 81       	ldd	r24, Z+6	; 0x06
 d76:	97 81       	ldd	r25, Z+7	; 0x07
 d78:	02 c0       	rjmp	.+4      	; 0xd7e <vfprintf+0x3c8>
 d7a:	8f ef       	ldi	r24, 0xFF	; 255
 d7c:	9f ef       	ldi	r25, 0xFF	; 255
 d7e:	2b 96       	adiw	r28, 0x0b	; 11
 d80:	0f b6       	in	r0, 0x3f	; 63
 d82:	f8 94       	cli
 d84:	de bf       	out	0x3e, r29	; 62
 d86:	0f be       	out	0x3f, r0	; 63
 d88:	cd bf       	out	0x3d, r28	; 61
 d8a:	df 91       	pop	r29
 d8c:	cf 91       	pop	r28
 d8e:	1f 91       	pop	r17
 d90:	0f 91       	pop	r16
 d92:	ff 90       	pop	r15
 d94:	ef 90       	pop	r14
 d96:	df 90       	pop	r13
 d98:	cf 90       	pop	r12
 d9a:	bf 90       	pop	r11
 d9c:	af 90       	pop	r10
 d9e:	9f 90       	pop	r9
 da0:	8f 90       	pop	r8
 da2:	7f 90       	pop	r7
 da4:	6f 90       	pop	r6
 da6:	5f 90       	pop	r5
 da8:	4f 90       	pop	r4
 daa:	3f 90       	pop	r3
 dac:	2f 90       	pop	r2
 dae:	08 95       	ret

00000db0 <strnlen_P>:
 db0:	fc 01       	movw	r30, r24
 db2:	05 90       	lpm	r0, Z+
 db4:	61 50       	subi	r22, 0x01	; 1
 db6:	70 40       	sbci	r23, 0x00	; 0
 db8:	01 10       	cpse	r0, r1
 dba:	d8 f7       	brcc	.-10     	; 0xdb2 <strnlen_P+0x2>
 dbc:	80 95       	com	r24
 dbe:	90 95       	com	r25
 dc0:	8e 0f       	add	r24, r30
 dc2:	9f 1f       	adc	r25, r31
 dc4:	08 95       	ret

00000dc6 <strnlen>:
 dc6:	fc 01       	movw	r30, r24
 dc8:	61 50       	subi	r22, 0x01	; 1
 dca:	70 40       	sbci	r23, 0x00	; 0
 dcc:	01 90       	ld	r0, Z+
 dce:	01 10       	cpse	r0, r1
 dd0:	d8 f7       	brcc	.-10     	; 0xdc8 <strnlen+0x2>
 dd2:	80 95       	com	r24
 dd4:	90 95       	com	r25
 dd6:	8e 0f       	add	r24, r30
 dd8:	9f 1f       	adc	r25, r31
 dda:	08 95       	ret

00000ddc <fputc>:
 ddc:	0f 93       	push	r16
 dde:	1f 93       	push	r17
 de0:	cf 93       	push	r28
 de2:	df 93       	push	r29
 de4:	fb 01       	movw	r30, r22
 de6:	23 81       	ldd	r18, Z+3	; 0x03
 de8:	21 fd       	sbrc	r18, 1
 dea:	03 c0       	rjmp	.+6      	; 0xdf2 <fputc+0x16>
 dec:	8f ef       	ldi	r24, 0xFF	; 255
 dee:	9f ef       	ldi	r25, 0xFF	; 255
 df0:	2c c0       	rjmp	.+88     	; 0xe4a <fputc+0x6e>
 df2:	22 ff       	sbrs	r18, 2
 df4:	16 c0       	rjmp	.+44     	; 0xe22 <fputc+0x46>
 df6:	46 81       	ldd	r20, Z+6	; 0x06
 df8:	57 81       	ldd	r21, Z+7	; 0x07
 dfa:	24 81       	ldd	r18, Z+4	; 0x04
 dfc:	35 81       	ldd	r19, Z+5	; 0x05
 dfe:	42 17       	cp	r20, r18
 e00:	53 07       	cpc	r21, r19
 e02:	44 f4       	brge	.+16     	; 0xe14 <fputc+0x38>
 e04:	a0 81       	ld	r26, Z
 e06:	b1 81       	ldd	r27, Z+1	; 0x01
 e08:	9d 01       	movw	r18, r26
 e0a:	2f 5f       	subi	r18, 0xFF	; 255
 e0c:	3f 4f       	sbci	r19, 0xFF	; 255
 e0e:	31 83       	std	Z+1, r19	; 0x01
 e10:	20 83       	st	Z, r18
 e12:	8c 93       	st	X, r24
 e14:	26 81       	ldd	r18, Z+6	; 0x06
 e16:	37 81       	ldd	r19, Z+7	; 0x07
 e18:	2f 5f       	subi	r18, 0xFF	; 255
 e1a:	3f 4f       	sbci	r19, 0xFF	; 255
 e1c:	37 83       	std	Z+7, r19	; 0x07
 e1e:	26 83       	std	Z+6, r18	; 0x06
 e20:	14 c0       	rjmp	.+40     	; 0xe4a <fputc+0x6e>
 e22:	8b 01       	movw	r16, r22
 e24:	ec 01       	movw	r28, r24
 e26:	fb 01       	movw	r30, r22
 e28:	00 84       	ldd	r0, Z+8	; 0x08
 e2a:	f1 85       	ldd	r31, Z+9	; 0x09
 e2c:	e0 2d       	mov	r30, r0
 e2e:	09 95       	icall
 e30:	89 2b       	or	r24, r25
 e32:	e1 f6       	brne	.-72     	; 0xdec <fputc+0x10>
 e34:	d8 01       	movw	r26, r16
 e36:	16 96       	adiw	r26, 0x06	; 6
 e38:	8d 91       	ld	r24, X+
 e3a:	9c 91       	ld	r25, X
 e3c:	17 97       	sbiw	r26, 0x07	; 7
 e3e:	01 96       	adiw	r24, 0x01	; 1
 e40:	17 96       	adiw	r26, 0x07	; 7
 e42:	9c 93       	st	X, r25
 e44:	8e 93       	st	-X, r24
 e46:	16 97       	sbiw	r26, 0x06	; 6
 e48:	ce 01       	movw	r24, r28
 e4a:	df 91       	pop	r29
 e4c:	cf 91       	pop	r28
 e4e:	1f 91       	pop	r17
 e50:	0f 91       	pop	r16
 e52:	08 95       	ret

00000e54 <__ultoa_invert>:
 e54:	fa 01       	movw	r30, r20
 e56:	aa 27       	eor	r26, r26
 e58:	28 30       	cpi	r18, 0x08	; 8
 e5a:	51 f1       	breq	.+84     	; 0xeb0 <__ultoa_invert+0x5c>
 e5c:	20 31       	cpi	r18, 0x10	; 16
 e5e:	81 f1       	breq	.+96     	; 0xec0 <__ultoa_invert+0x6c>
 e60:	e8 94       	clt
 e62:	6f 93       	push	r22
 e64:	6e 7f       	andi	r22, 0xFE	; 254
 e66:	6e 5f       	subi	r22, 0xFE	; 254
 e68:	7f 4f       	sbci	r23, 0xFF	; 255
 e6a:	8f 4f       	sbci	r24, 0xFF	; 255
 e6c:	9f 4f       	sbci	r25, 0xFF	; 255
 e6e:	af 4f       	sbci	r26, 0xFF	; 255
 e70:	b1 e0       	ldi	r27, 0x01	; 1
 e72:	3e d0       	rcall	.+124    	; 0xef0 <__ultoa_invert+0x9c>
 e74:	b4 e0       	ldi	r27, 0x04	; 4
 e76:	3c d0       	rcall	.+120    	; 0xef0 <__ultoa_invert+0x9c>
 e78:	67 0f       	add	r22, r23
 e7a:	78 1f       	adc	r23, r24
 e7c:	89 1f       	adc	r24, r25
 e7e:	9a 1f       	adc	r25, r26
 e80:	a1 1d       	adc	r26, r1
 e82:	68 0f       	add	r22, r24
 e84:	79 1f       	adc	r23, r25
 e86:	8a 1f       	adc	r24, r26
 e88:	91 1d       	adc	r25, r1
 e8a:	a1 1d       	adc	r26, r1
 e8c:	6a 0f       	add	r22, r26
 e8e:	71 1d       	adc	r23, r1
 e90:	81 1d       	adc	r24, r1
 e92:	91 1d       	adc	r25, r1
 e94:	a1 1d       	adc	r26, r1
 e96:	20 d0       	rcall	.+64     	; 0xed8 <__ultoa_invert+0x84>
 e98:	09 f4       	brne	.+2      	; 0xe9c <__ultoa_invert+0x48>
 e9a:	68 94       	set
 e9c:	3f 91       	pop	r19
 e9e:	2a e0       	ldi	r18, 0x0A	; 10
 ea0:	26 9f       	mul	r18, r22
 ea2:	11 24       	eor	r1, r1
 ea4:	30 19       	sub	r19, r0
 ea6:	30 5d       	subi	r19, 0xD0	; 208
 ea8:	31 93       	st	Z+, r19
 eaa:	de f6       	brtc	.-74     	; 0xe62 <__ultoa_invert+0xe>
 eac:	cf 01       	movw	r24, r30
 eae:	08 95       	ret
 eb0:	46 2f       	mov	r20, r22
 eb2:	47 70       	andi	r20, 0x07	; 7
 eb4:	40 5d       	subi	r20, 0xD0	; 208
 eb6:	41 93       	st	Z+, r20
 eb8:	b3 e0       	ldi	r27, 0x03	; 3
 eba:	0f d0       	rcall	.+30     	; 0xeda <__ultoa_invert+0x86>
 ebc:	c9 f7       	brne	.-14     	; 0xeb0 <__ultoa_invert+0x5c>
 ebe:	f6 cf       	rjmp	.-20     	; 0xeac <__ultoa_invert+0x58>
 ec0:	46 2f       	mov	r20, r22
 ec2:	4f 70       	andi	r20, 0x0F	; 15
 ec4:	40 5d       	subi	r20, 0xD0	; 208
 ec6:	4a 33       	cpi	r20, 0x3A	; 58
 ec8:	18 f0       	brcs	.+6      	; 0xed0 <__ultoa_invert+0x7c>
 eca:	49 5d       	subi	r20, 0xD9	; 217
 ecc:	31 fd       	sbrc	r19, 1
 ece:	40 52       	subi	r20, 0x20	; 32
 ed0:	41 93       	st	Z+, r20
 ed2:	02 d0       	rcall	.+4      	; 0xed8 <__ultoa_invert+0x84>
 ed4:	a9 f7       	brne	.-22     	; 0xec0 <__ultoa_invert+0x6c>
 ed6:	ea cf       	rjmp	.-44     	; 0xeac <__ultoa_invert+0x58>
 ed8:	b4 e0       	ldi	r27, 0x04	; 4
 eda:	a6 95       	lsr	r26
 edc:	97 95       	ror	r25
 ede:	87 95       	ror	r24
 ee0:	77 95       	ror	r23
 ee2:	67 95       	ror	r22
 ee4:	ba 95       	dec	r27
 ee6:	c9 f7       	brne	.-14     	; 0xeda <__ultoa_invert+0x86>
 ee8:	00 97       	sbiw	r24, 0x00	; 0
 eea:	61 05       	cpc	r22, r1
 eec:	71 05       	cpc	r23, r1
 eee:	08 95       	ret
 ef0:	9b 01       	movw	r18, r22
 ef2:	ac 01       	movw	r20, r24
 ef4:	0a 2e       	mov	r0, r26
 ef6:	06 94       	lsr	r0
 ef8:	57 95       	ror	r21
 efa:	47 95       	ror	r20
 efc:	37 95       	ror	r19
 efe:	27 95       	ror	r18
 f00:	ba 95       	dec	r27
 f02:	c9 f7       	brne	.-14     	; 0xef6 <__ultoa_invert+0xa2>
 f04:	62 0f       	add	r22, r18
 f06:	73 1f       	adc	r23, r19
 f08:	84 1f       	adc	r24, r20
 f0a:	95 1f       	adc	r25, r21
 f0c:	a0 1d       	adc	r26, r0
 f0e:	08 95       	ret

00000f10 <_exit>:
 f10:	f8 94       	cli

00000f12 <__stop_program>:
 f12:	ff cf       	rjmp	.-2      	; 0xf12 <__stop_program>
